(dp0
S'METTS MARK'
p1
(dp2
S'to_messages'
p3
I807
sS'deferral_payments'
p4
S'NaN'
p5
sS'expenses'
p6
I94299
sS'poi'
p7
I00
sS'deferred_income'
p8
g5
sS'email_address'
p9
S'mark.metts@enron.com'
p10
sS'long_term_incentive'
p11
g5
sS'log_total_payments'
p12
cnumpy.core.multiarray
scalar
p13
(cnumpy
dtype
p14
(S'f8'
p15
I0
I1
tp16
Rp17
(I3
S'<'
p18
NNNI-1
I-1
I0
tp19
bS'%\x86\xce\xbdA\xc0+@'
p20
tp21
Rp22
sS'restricted_stock_deferred'
p23
g5
sS'shared_receipt_with_poi'
p24
I702
sS'loan_advances'
p25
g5
sS'from_messages'
p26
I29
sS'other'
p27
I1740
sS'director_fees'
p28
g5
sS'log_bonus'
p29
g13
(g17
S'[\xee\xe7\xa9\xff\x9b*@'
p30
tp31
Rp32
sS'bonus'
p33
I600000
sS'total_stock_value'
p34
I585062
sS'from_poi_to_this_person'
p35
I38
sS'from_this_person_to_poi'
p36
I1
sS'restricted_stock'
p37
I585062
sS'salary'
p38
I365788
sS'total_payments'
p39
I1061827
sS'exercised_stock_options'
p40
g5
sS'log_salary'
p41
g13
(g17
S']_\x0eP\x9f\x9e)@'
p42
tp43
Rp44
ssS'BAXTER JOHN C'
p45
(dp46
g3
g5
sg4
I1295738
sg6
I11200
sg7
I00
sg8
I-1386055
sg9
g5
sg11
I1586055
sg12
g13
(g17
S'\xa8qXn\xba\x16/@'
p47
tp48
Rp49
sg23
g5
sg24
g5
sg25
g5
sg26
g5
sg27
I2660303
sg28
g5
sg29
g13
(g17
S'\xfa\x91\xd7\xd9\xe3\xfe+@'
p50
tp51
Rp52
sg33
I1200000
sg34
I10623258
sg35
g5
sg36
g5
sg37
I3942714
sg38
I267102
sg39
I5634343
sg40
I6680544
sg41
g13
(g17
S'dJ\x0e8\xa3\xfd(@'
p53
tp54
Rp55
ssS'ELLIOTT STEVEN'
p56
(dp57
g3
g5
sg4
g5
sg6
I78552
sg7
I00
sg8
I-400729
sg9
S'steven.elliott@enron.com'
p58
sg11
g5
sg12
g13
(g17
S'\x89\xd2\xa2\xa4\xad\x86(@'
p59
tp60
Rp61
sg23
g5
sg24
g5
sg25
g5
sg26
g5
sg27
I12961
sg28
g5
sg29
g13
(g17
S'\x07RyP\x08\x88)@'
p62
tp63
Rp64
sg33
I350000
sg34
I6678735
sg35
g5
sg36
g5
sg37
I1788391
sg38
I170941
sg39
I211725
sg40
I4890344
sg41
g13
(g17
S'\x9bi\xb21 \x19(@'
p65
tp66
Rp67
ssS'CORDES WILLIAM R'
p68
(dp69
g3
I764
sg4
g5
sg6
g5
sg7
I00
sg8
g5
sg9
S'bill.cordes@enron.com'
p70
sg11
g5
sg12
S'NaN'
p71
sg23
g5
sg24
I58
sg25
g5
sg26
I12
sg27
g5
sg28
g5
sg29
g71
sg33
g5
sg34
I1038185
sg35
I10
sg36
I0
sg37
I386335
sg38
g5
sg39
g5
sg40
I651850
sg41
g71
ssS'HANNON KEVIN P'
p72
(dp73
g3
I1045
sg4
g5
sg6
I34039
sg7
I01
sg8
I-3117011
sg9
S'kevin.hannon@enron.com'
p74
sg11
I1617011
sg12
g13
(g17
S'/\xe7\xf4\xdfj%)@'
p75
tp76
Rp77
sg23
g5
sg24
I1035
sg25
g5
sg26
I32
sg27
I11350
sg28
g5
sg29
g13
(g17
S'c\xfc\xf5\xb8#q,@'
p78
tp79
Rp80
sg33
I1500000
sg34
I6391065
sg35
I32
sg36
I21
sg37
I853064
sg38
I243293
sg39
I288682
sg40
I5538001
sg41
g13
(g17
S'\x9b\xb5\xb7\xcb\xd5\xcd(@'
p81
tp82
Rp83
ssS'MORDAUNT KRISTINA M'
p84
(dp85
g3
g5
sg4
g5
sg6
I35018
sg7
I00
sg8
g5
sg9
S'kristina.mordaunt@enron.com'
p86
sg11
g5
sg12
g13
(g17
S'a\xac\xe7\xd3\xc6\xb3*@'
p87
tp88
Rp89
sg23
g5
sg24
g5
sg25
g5
sg26
g5
sg27
I1411
sg28
g5
sg29
g13
(g17
S'1\xc6\x8f\xd5\x16b)@'
p90
tp91
Rp92
sg33
I325000
sg34
I208510
sg35
g5
sg36
g5
sg37
I208510
sg38
I267093
sg39
I628522
sg40
g5
sg41
g13
(g17
S'\xfe\xa0k\xcd\x9e\xfd(@'
p93
tp94
Rp95
ssS'MEYER ROCKFORD G'
p96
(dp97
g3
I232
sg4
I1848227
sg6
g5
sg7
I00
sg8
g5
sg9
S'rockford.meyer@enron.com'
p98
sg11
g5
sg12
g13
(g17
S'\xd5\xbb\xfe\x88\x06\xdc,@'
p99
tp100
Rp101
sg23
g5
sg24
I22
sg25
g5
sg26
I28
sg27
g5
sg28
g5
sg29
g71
sg33
g5
sg34
I955873
sg35
I0
sg36
I0
sg37
I462384
sg38
g5
sg39
I1848227
sg40
I493489
sg41
g71
ssS'MCMAHON JEFFREY'
p102
(dp103
g3
I2355
sg4
g5
sg6
I137108
sg7
I00
sg8
g5
sg9
S'jeffrey.mcmahon@enron.com'
p104
sg11
I694862
sg12
g13
(g17
S'4\xa9\xd5)\xf0s.@'
p105
tp106
Rp107
sg23
g5
sg24
I2228
sg25
g5
sg26
I48
sg27
I297353
sg28
g5
sg29
g13
(g17
S'\x0e\xb1^e\xc3\x8a-@'
p108
tp109
Rp110
sg33
I2600000
sg34
I1662855
sg35
I58
sg36
I26
sg37
I558801
sg38
I370448
sg39
I4099771
sg40
I1104054
sg41
g13
(g17
S'\xf3\x14\xc2\x92\x1a\xa5)@'
p111
tp112
Rp113
ssS'HORTON STANLEY C'
p114
(dp115
g3
I2350
sg4
I3131860
sg6
g5
sg7
I00
sg8
g5
sg9
S'stanley.horton@enron.com'
p116
sg11
g5
sg12
g13
(g17
S'\x12\x18\xb2\xf1\r\xea-@'
p117
tp118
Rp119
sg23
g5
sg24
I1074
sg25
g5
sg26
I1073
sg27
g5
sg28
g5
sg29
g71
sg33
g5
sg34
I7256648
sg35
I44
sg36
I15
sg37
I2046079
sg38
g5
sg39
I3131860
sg40
I5210569
sg41
g71
ssS'PIPER GREGORY F'
p120
(dp121
g3
I1238
sg4
I1130036
sg6
I43057
sg7
I00
sg8
I-33333
sg9
S'greg.piper@enron.com'
p122
sg11
g5
sg12
g13
(g17
S'\x06\xe4\x03\xb4n\xbc,@'
p123
tp124
Rp125
sg23
I-409554
sg24
I742
sg25
g5
sg26
I222
sg27
I778
sg28
g5
sg29
g13
(g17
S'\x99\xf1\x81\x8af\xcc)@'
p126
tp127
Rp128
sg33
I400000
sg34
I880290
sg35
I61
sg36
I48
sg37
I409554
sg38
I197091
sg39
I1737629
sg40
I880290
sg41
g13
(g17
S'@:9\xe9\x01b(@'
p129
tp130
Rp131
ssS'HUMPHREY GENE E'
p132
(dp133
g3
I128
sg4
I2964506
sg6
I4994
sg7
I00
sg8
g5
sg9
S'gene.humphrey@enron.com'
p134
sg11
g5
sg12
g13
(g17
S'\xf1\x94D5\xdb\xe4-@'
p135
tp136
Rp137
sg23
g5
sg24
I119
sg25
g5
sg26
I17
sg27
g5
sg28
g5
sg29
g71
sg33
g5
sg34
I2282768
sg35
I10
sg36
I17
sg37
g5
sg38
I130724
sg39
I3100224
sg40
I2282768
sg41
g13
(g17
S"^+p\xb8\xca\x8f'@"
p138
tp139
Rp140
ssS'UMANOFF ADAM S'
p141
(dp142
g3
I111
sg4
g5
sg6
I53122
sg7
I00
sg8
g5
sg9
S'adam.umanoff@enron.com'
p143
sg11
g5
sg12
g13
(g17
S'\xe8\xb1\t_S\xe0+@'
p144
tp145
Rp146
sg23
g5
sg24
I41
sg25
g5
sg26
I18
sg27
g5
sg28
g5
sg29
g13
(g17
S'\x18C\x0cr\n(+@'
p147
tp148
Rp149
sg33
I788750
sg34
g5
sg35
I12
sg36
I0
sg37
g5
sg38
I288589
sg39
I1130461
sg40
g5
sg41
g13
(g17
S'\xfe\x16\x87\xa4@%)@'
p150
tp151
Rp152
ssS'BLACHMAN JEREMY M'
p153
(dp154
g3
I2475
sg4
g5
sg6
I84208
sg7
I00
sg8
g5
sg9
S'jeremy.blachman@enron.com'
p155
sg11
I831809
sg12
g13
(g17
S'\x9cl\xf7l7\x08-@'
p156
tp157
Rp158
sg23
g5
sg24
I2326
sg25
g5
sg26
I14
sg27
I272
sg28
g5
sg29
g13
(g17
S'\x9a\xa61\xebTN+@'
p159
tp160
Rp161
sg33
I850000
sg34
I954354
sg35
I25
sg36
I2
sg37
I189041
sg38
I248546
sg39
I2014835
sg40
I765313
sg41
g13
(g17
S'\xa8jf\xaf\xc5\xd8(@'
p162
tp163
Rp164
ssS'SUNDE MARTIN'
p165
(dp166
g3
I2647
sg4
g5
sg6
g5
sg7
I00
sg8
g5
sg9
S'marty.sunde@enron.com'
p167
sg11
I476451
sg12
g13
(g17
S'\xc9u\x1f\x0fK\x80,@'
p168
tp169
Rp170
sg23
g5
sg24
I2565
sg25
g5
sg26
I38
sg27
I111122
sg28
g5
sg29
g13
(g17
S'\xa6\xf5h\x80\xec\xea*@'
p171
tp172
Rp173
sg33
I700000
sg34
I698920
sg35
I37
sg36
I13
sg37
I698920
sg38
I257486
sg39
I1545059
sg40
g5
sg41
g13
(g17
S'\x9eS$n\xdd\xea(@'
p174
tp175
Rp176
ssS'GIBBS DANA R'
p177
(dp178
g3
I169
sg4
I504610
sg6
g5
sg7
I00
sg8
g5
sg9
S'dana.gibbs@enron.com'
p179
sg11
I461912
sg12
g13
(g17
S'21Hp\x1b\x90+@'
p180
tp181
Rp182
sg23
g5
sg24
I23
sg25
g5
sg26
I12
sg27
g5
sg28
g5
sg29
g71
sg33
g5
sg34
I2218275
sg35
I0
sg36
I0
sg37
g5
sg38
g5
sg39
I966522
sg40
I2218275
sg41
g71
ssS'LOWRY CHARLES P'
p183
(dp184
g3
g5
sg4
g5
sg6
g5
sg7
I00
sg8
g5
sg9
g5
sg11
g5
sg12
g71
sg23
I-153686
sg24
g5
sg25
g5
sg26
g5
sg27
g5
sg28
g5
sg29
g71
sg33
g5
sg34
I372205
sg35
g5
sg36
g5
sg37
I153686
sg38
g5
sg39
g5
sg40
I372205
sg41
g71
ssS'COLWELL WESLEY'
p185
(dp186
g3
I1758
sg4
I27610
sg6
I16514
sg7
I01
sg8
I-144062
sg9
S'wes.colwell@enron.com'
p187
sg11
g5
sg12
g13
(g17
S'\x14\xeb\xa9=\xd5m,@'
p188
tp189
Rp190
sg23
g5
sg24
I1132
sg25
g5
sg26
I40
sg27
I101740
sg28
g5
sg29
g13
(g17
S'\xfa\x91\xd7\xd9\xe3\xfe+@'
p191
tp192
Rp193
sg33
I1200000
sg34
I698242
sg35
I240
sg36
I11
sg37
I698242
sg38
I288542
sg39
I1490344
sg40
g5
sg41
g13
(g17
S'\xcd\xa3\\K+%)@'
p194
tp195
Rp196
ssS'MULLER MARK S'
p197
(dp198
g3
I136
sg4
I842924
sg6
g5
sg7
I00
sg8
I-719000
sg9
S's..muller@enron.com'
p199
sg11
I1725545
sg12
g13
(g17
S'\x94[\xd2\xdcg\xf5-@'
p200
tp201
Rp202
sg23
g5
sg24
I114
sg25
g5
sg26
I16
sg27
I947
sg28
g5
sg29
g13
(g17
S'.x\x82\x18W\xd2+@'
p203
tp204
Rp205
sg33
I1100000
sg34
I1416848
sg35
I12
sg36
I0
sg37
I360528
sg38
I251654
sg39
I3202070
sg40
I1056320
sg41
g13
(g17
S'\xac\x1b\xac\x8a"\xdf(@'
p206
tp207
Rp208
ssS'JACKSON CHARLENE R'
p209
(dp210
g3
I258
sg4
g5
sg6
I10181
sg7
I00
sg8
g5
sg9
S'charlene.jackson@enron.com'
p211
sg11
g5
sg12
g13
(g17
S'\x1ea\xb3c\x8ap*@'
p212
tp213
Rp214
sg23
g5
sg24
I117
sg25
g5
sg26
I56
sg27
I2435
sg28
g5
sg29
g13
(g17
S'b\xb8\xb09\xc2\xdb(@'
p215
tp216
Rp217
sg33
I250000
sg34
I725735
sg35
I25
sg36
I19
sg37
I540672
sg38
I288558
sg39
I551174
sg40
I185063
sg41
g13
(g17
S'O\x9c\xf1\x8f2%)@'
p218
tp219
Rp220
ssS'WESTFAHL RICHARD K'
p221
(dp222
g3
g5
sg4
g5
sg6
I51870
sg7
I00
sg8
I-10800
sg9
S'dick.westfahl@enron.com'
p223
sg11
I256191
sg12
g13
(g17
S'H^eNw\x16+@'
p224
tp225
Rp226
sg23
g5
sg24
g5
sg25
g5
sg26
g5
sg27
I401130
sg28
g5
sg29
g71
sg33
g5
sg34
I384930
sg35
g5
sg36
g5
sg37
I384930
sg38
I63744
sg39
I762135
sg40
g5
sg41
g13
(g17
S'\x9a/\x84\x15\x11 &@'
p227
tp228
Rp229
ssS'WALTERS GARETH W'
p230
(dp231
g3
g5
sg4
I53625
sg6
I33785
sg7
I00
sg8
g5
sg9
g5
sg11
g5
sg12
g13
(g17
S'\xac\xba\xb5\r\xb9\xc1&@'
p232
tp233
Rp234
sg23
g5
sg24
g5
sg25
g5
sg26
g5
sg27
g5
sg28
g5
sg29
g71
sg33
g5
sg34
I1030329
sg35
g5
sg36
g5
sg37
g5
sg38
g5
sg39
I87410
sg40
I1030329
sg41
g71
ssS'WALLS JR ROBERT H'
p235
(dp236
g3
I671
sg4
g5
sg6
I50936
sg7
I00
sg8
g5
sg9
S'rob.walls@enron.com'
p237
sg11
I540751
sg12
g13
(g17
S'S\xda\x14\x1b$\xce,@'
p238
tp239
Rp240
sg23
g5
sg24
I215
sg25
g5
sg26
I146
sg27
I2
sg28
g5
sg29
g13
(g17
S'\x9a\xa61\xebTN+@'
p241
tp242
Rp243
sg33
I850000
sg34
I5898997
sg35
I17
sg36
I0
sg37
I1552453
sg38
I357091
sg39
I1798780
sg40
I4346544
sg41
g13
(g17
S']\xb2bJM\x92)@'
p244
tp245
Rp246
ssS'KITCHEN LOUISE'
p247
(dp248
g3
I8305
sg4
g5
sg6
I5774
sg7
I00
sg8
g5
sg9
S'louise.kitchen@enron.com'
p249
sg11
g5
sg12
g13
(g17
S'\xb9\x16\xc9\x85\xb7\x1e.@'
p250
tp251
Rp252
sg23
g5
sg24
I3669
sg25
g5
sg26
I1728
sg27
I93925
sg28
g5
sg29
g13
(g17
S'1\xf5\xc6\xbc\xd1\xe4-@'
p253
tp254
Rp255
sg33
I3100000
sg34
I547143
sg35
I251
sg36
I194
sg37
I466101
sg38
I271442
sg39
I3471141
sg40
I81042
sg41
g13
(g17
S'\xd9\xbeb\xd2\xe3\x05)@'
p256
tp257
Rp258
ssS'CHAN RONNIE'
p259
(dp260
g3
g5
sg4
g5
sg6
g5
sg7
I00
sg8
I-98784
sg9
g5
sg11
g5
sg12
g71
sg23
I-32460
sg24
g5
sg25
g5
sg26
g5
sg27
g5
sg28
I98784
sg29
g71
sg33
g5
sg34
g5
sg35
g5
sg36
g5
sg37
I32460
sg38
g5
sg39
g5
sg40
g5
sg41
g71
ssS'BELFER ROBERT'
p261
(dp262
g3
g5
sg4
I-102500
sg6
g5
sg7
I00
sg8
g5
sg9
g5
sg11
g5
sg12
g13
(g17
S"\xeb\xb89\xadB\x13'@"
p263
tp264
Rp265
sg23
I44093
sg24
g5
sg25
g5
sg26
g5
sg27
g5
sg28
I3285
sg29
g71
sg33
g5
sg34
I-44093
sg35
g5
sg36
g5
sg37
g5
sg38
g5
sg39
I102500
sg40
I3285
sg41
g71
ssS'SHANKMAN JEFFREY A'
p266
(dp267
g3
I3221
sg4
g5
sg6
I178979
sg7
I00
sg8
g5
sg9
S'jeffrey.shankman@enron.com'
p268
sg11
I554422
sg12
g13
(g17
S'\r\xd2\t\x03\x98\xda-@'
p269
tp270
Rp271
sg23
g5
sg24
I1730
sg25
g5
sg26
I2681
sg27
I1191
sg28
g5
sg29
g13
(g17
S'?\xa3\x7f\xc9n\x04-@'
p272
tp273
Rp274
sg33
I2000000
sg34
I2072035
sg35
I94
sg36
I83
sg37
I630137
sg38
I304110
sg39
I3038702
sg40
I1441898
sg41
g13
(g17
S'b\x8b=\xf9\x12@)@'
p275
tp276
Rp277
ssS'WODRASKA JOHN'
p278
(dp279
g3
g5
sg4
g5
sg6
g5
sg7
I00
sg8
g5
sg9
S'john.wodraska@enron.com'
p280
sg11
g5
sg12
g13
(g17
S'\xf3\xf7!A\x1fN(@'
p281
tp282
Rp283
sg23
g5
sg24
g5
sg25
g5
sg26
g5
sg27
I189583
sg28
g5
sg29
g71
sg33
g5
sg34
g5
sg35
g5
sg36
g5
sg37
g5
sg38
g5
sg39
I189583
sg40
g5
sg41
g71
ssS'BERGSIEKER RICHARD P'
p284
(dp285
g3
I383
sg4
g5
sg6
I59175
sg7
I00
sg8
I-485813
sg9
S'rick.bergsieker@enron.com'
p286
sg11
I180250
sg12
g13
(g17
S'i@\xef%\xd6\xab*@'
p287
tp288
Rp289
sg23
g5
sg24
I233
sg25
g5
sg26
I59
sg27
I427316
sg28
g5
sg29
g13
(g17
S'b\xb8\xb09\xc2\xdb(@'
p290
tp291
Rp292
sg33
I250000
sg34
I659249
sg35
I4
sg36
I0
sg37
I659249
sg38
I187922
sg39
I618850
sg40
g5
sg41
g13
(g17
S'#\xf4"\xd4\x9dI(@'
p293
tp294
Rp295
ssS'URQUHART JOHN A'
p296
(dp297
g3
g5
sg4
g5
sg6
I228656
sg7
I00
sg8
I-36666
sg9
g5
sg11
g5
sg12
g13
(g17
S'\x14\xe4r\x11\x11\xae(@'
p298
tp299
Rp300
sg23
g5
sg24
g5
sg25
g5
sg26
g5
sg27
g5
sg28
I36666
sg29
g71
sg33
g5
sg34
g5
sg35
g5
sg36
g5
sg37
g5
sg38
g5
sg39
I228656
sg40
g5
sg41
g71
ssS'BIBI PHILIPPE A'
p301
(dp302
g3
I1607
sg4
g5
sg6
I38559
sg7
I00
sg8
g5
sg9
S'philippe.bibi@enron.com'
p303
sg11
I369721
sg12
g13
(g17
S'\xa1\xa7 Oy\x10-@'
p304
tp305
Rp306
sg23
g5
sg24
I1336
sg25
g5
sg26
I40
sg27
I425688
sg28
g5
sg29
g13
(g17
S'\xa0\xff\x8f\x99\x8a\xa1+@'
p307
tp308
Rp309
sg33
I1000000
sg34
I1843816
sg35
I23
sg36
I8
sg37
I378082
sg38
I213625
sg39
I2047593
sg40
I1465734
sg41
g13
(g17
S'\xfd\xe3\xdb\x9f@\x8b(@'
p310
tp311
Rp312
ssS'RIEKER PAULA H'
p313
(dp314
g3
I1328
sg4
I214678
sg6
I33271
sg7
I01
sg8
I-100000
sg9
S'paula.rieker@enron.com'
p315
sg11
g5
sg12
g13
(g17
S'Lt\xa5\xcf\xeb\xd1+@'
p316
tp317
Rp318
sg23
g5
sg24
I1258
sg25
g5
sg26
I82
sg27
I1950
sg28
g5
sg29
g13
(g17
S'\xa6\xf5h\x80\xec\xea*@'
p319
tp320
Rp321
sg33
I700000
sg34
I1918887
sg35
I35
sg36
I48
sg37
I283649
sg38
I249201
sg39
I1099100
sg40
I1635238
sg41
g13
(g17
S'\xbc{\xfd\xa5\x1e\xda(@'
p322
tp323
Rp324
ssS'WHALEY DAVID A'
p325
(dp326
g3
g5
sg4
g5
sg6
g5
sg7
I00
sg8
g5
sg9
g5
sg11
g5
sg12
g71
sg23
g5
sg24
g5
sg25
g5
sg26
g5
sg27
g5
sg28
g5
sg29
g71
sg33
g5
sg34
I98718
sg35
g5
sg36
g5
sg37
g5
sg38
g5
sg39
g5
sg40
I98718
sg41
g71
ssS'BECK SALLY W'
p327
(dp328
g3
I7315
sg4
g5
sg6
I37172
sg7
I00
sg8
g5
sg9
S'sally.beck@enron.com'
p329
sg11
g5
sg12
g13
(g17
S'\xe8\xb3\xba@t\x91+@'
p330
tp331
Rp332
sg23
g5
sg24
I2639
sg25
g5
sg26
I4343
sg27
I566
sg28
g5
sg29
g13
(g17
S'\xa6\xf5h\x80\xec\xea*@'
p333
tp334
Rp335
sg33
I700000
sg34
I126027
sg35
I144
sg36
I386
sg37
I126027
sg38
I231330
sg39
I969068
sg40
g5
sg41
g13
(g17
S'p\xf4u\xfc\x04\xb4(@'
p336
tp337
Rp338
ssS'HAUG DAVID L'
p339
(dp340
g3
I573
sg4
g5
sg6
I475
sg7
I00
sg8
g5
sg9
S'david.haug@enron.com'
p341
sg11
g5
sg12
g13
(g17
S'0 \xf9\xfe;\xa7\x18@'
p342
tp343
Rp344
sg23
g5
sg24
I471
sg25
g5
sg26
I19
sg27
g5
sg28
g5
sg29
g71
sg33
g5
sg34
I2217299
sg35
I4
sg36
I7
sg37
I2217299
sg38
g5
sg39
I475
sg40
g5
sg41
g71
ssS'ECHOLS JOHN B'
p345
(dp346
g3
g5
sg4
g5
sg6
I21530
sg7
I00
sg8
g5
sg9
S'john.echols@enron.com'
p347
sg11
I2234774
sg12
g13
(g17
S'(\xe7\xc5\xee\xa0\x9c-@'
p348
tp349
Rp350
sg23
g5
sg24
g5
sg25
g5
sg26
g5
sg27
I53775
sg28
g5
sg29
g13
(g17
S'\xfaM\x92Z\x82i(@'
p351
tp352
Rp353
sg33
I200000
sg34
I1008941
sg35
g5
sg36
g5
sg37
I407503
sg38
I182245
sg39
I2692324
sg40
I601438
sg41
g13
(g17
S'&\xbfW0\xe99(@'
p354
tp355
Rp356
ssS'MENDELSOHN JOHN'
p357
(dp358
g3
g5
sg4
g5
sg6
I148
sg7
I00
sg8
I-103750
sg9
g5
sg11
g5
sg12
g13
(g17
S'Z\xf2\xdb6%\xfd\x13@'
p359
tp360
Rp361
sg23
g5
sg24
g5
sg25
g5
sg26
g5
sg27
g5
sg28
I103750
sg29
g71
sg33
g5
sg34
g5
sg35
g5
sg36
g5
sg37
g5
sg38
g5
sg39
I148
sg40
g5
sg41
g71
ssS'HICKERSON GARY J'
p362
(dp363
g3
I1320
sg4
g5
sg6
I98849
sg7
I00
sg8
g5
sg9
S'gary.hickerson@enron.com'
p364
sg11
I69223
sg12
g13
(g17
S'H\x13\xb6\xa6\xf4\x18-@'
p365
tp366
Rp367
sg23
g5
sg24
I900
sg25
g5
sg26
I27
sg27
I1936
sg28
g5
sg29
g13
(g17
S'9J!\x1b9\xb1,@'
p368
tp369
Rp370
sg33
I1700000
sg34
I441096
sg35
I40
sg36
I1
sg37
I441096
sg38
I211788
sg39
I2081796
sg40
g5
sg41
g13
(g17
S'|iw\xa3\xd4\x86(@'
p371
tp372
Rp373
ssS'CLINE KENNETH W'
p374
(dp375
g3
g5
sg4
g5
sg6
g5
sg7
I00
sg8
g5
sg9
g5
sg11
g5
sg12
g71
sg23
I-472568
sg24
g5
sg25
g5
sg26
g5
sg27
g5
sg28
g5
sg29
g71
sg33
g5
sg34
I189518
sg35
g5
sg36
g5
sg37
I662086
sg38
g5
sg39
g5
sg40
g5
sg41
g71
ssS'LEWIS RICHARD'
p376
(dp377
g3
I952
sg4
g5
sg6
g5
sg7
I00
sg8
g5
sg9
S'richard.lewis@enron.com'
p378
sg11
g5
sg12
g71
sg23
g5
sg24
I739
sg25
g5
sg26
I26
sg27
g5
sg28
g5
sg29
g71
sg33
g5
sg34
I850477
sg35
I10
sg36
I0
sg37
g5
sg38
g5
sg39
g5
sg40
I850477
sg41
g71
ssS'HAYES ROBERT E'
p379
(dp380
g3
I504
sg4
I7961
sg6
g5
sg7
I00
sg8
g5
sg9
S'robert.hayes@enron.com'
p381
sg11
g5
sg12
g13
(g17
S'\xb9>\xb6R\xf1\xf6!@'
p382
tp383
Rp384
sg23
g5
sg24
I50
sg25
g5
sg26
I12
sg27
g5
sg28
g5
sg29
g71
sg33
g5
sg34
I151418
sg35
I16
sg36
I0
sg37
I151418
sg38
g5
sg39
I7961
sg40
g5
sg41
g71
ssS'MCCARTY DANNY J'
p385
(dp386
g3
I1433
sg4
g5
sg6
g5
sg7
I00
sg8
g5
sg9
S'danny.mccarty@enron.com'
p387
sg11
g5
sg12
g71
sg23
g5
sg24
I508
sg25
g5
sg26
I215
sg27
g5
sg28
g5
sg29
g71
sg33
g5
sg34
I758931
sg35
I25
sg36
I2
sg37
I94556
sg38
g5
sg39
g5
sg40
I664375
sg41
g71
ssS'KOPPER MICHAEL J'
p388
(dp389
g3
g5
sg4
g5
sg6
I118134
sg7
I01
sg8
g5
sg9
S'michael.kopper@enron.com'
p390
sg11
I602671
sg12
g13
(g17
S'\xa5\xd2\xb75\x05\x95-@'
p391
tp392
Rp393
sg23
g5
sg24
g5
sg25
g5
sg26
g5
sg27
I907502
sg28
g5
sg29
g13
(g17
S'8\x95q\xbaJ/+@'
p394
tp395
Rp396
sg33
I800000
sg34
I985032
sg35
g5
sg36
g5
sg37
I985032
sg38
I224305
sg39
I2652612
sg40
g5
sg41
g13
(g17
S'\xcd?\x1d\xeb:\xa4(@'
p397
tp398
Rp399
ssS'LEFF DANIEL P'
p400
(dp401
g3
I2822
sg4
g5
sg6
g5
sg7
I00
sg8
g5
sg9
S'dan.leff@enron.com'
p402
sg11
I1387399
sg12
g13
(g17
S'\x12\xfdw\xeeA\x97-@'
p403
tp404
Rp405
sg23
g5
sg24
I2672
sg25
g5
sg26
I63
sg27
I3083
sg28
g5
sg29
g13
(g17
S'\xa0\xff\x8f\x99\x8a\xa1+@'
p406
tp407
Rp408
sg33
I1000000
sg34
I360528
sg35
I67
sg36
I14
sg37
I360528
sg38
I273746
sg39
I2664228
sg40
g5
sg41
g13
(g17
S'$1\x81\xaa7\n)@'
p409
tp410
Rp411
ssS'LAVORATO JOHN J'
p412
(dp413
g3
I7259
sg4
g5
sg6
I49537
sg7
I00
sg8
g5
sg9
S'john.lavorato@enron.com'
p414
sg11
I2035380
sg12
g13
(g17
S'\x0fOI\xfe\xe7(0@'
p415
tp416
Rp417
sg23
g5
sg24
I3962
sg25
g5
sg26
I2585
sg27
I1552
sg28
g5
sg29
g13
(g17
S'}\xea^)7\xca/@'
p418
tp419
Rp420
sg33
I8000000
sg34
I5167144
sg35
I528
sg36
I411
sg37
I1008149
sg38
I339288
sg39
I10425757
sg40
I4158995
sg41
g13
(g17
S'\xd2\xcc\x88\x17\x1ex)@'
p421
tp422
Rp423
ssS'BERBERIAN DAVID'
p424
(dp425
g3
g5
sg4
g5
sg6
I11892
sg7
I00
sg8
g5
sg9
S'david.berberian@enron.com'
p426
sg11
g5
sg12
g13
(g17
S'\xd8\xbc\xfa\xb2\xa8\xad(@'
p427
tp428
Rp429
sg23
g5
sg24
g5
sg25
g5
sg26
g5
sg27
g5
sg28
g5
sg29
g71
sg33
g5
sg34
I2493616
sg35
g5
sg36
g5
sg37
I869220
sg38
I216582
sg39
I228474
sg40
I1624396
sg41
g13
(g17
S'\x97\xa3\x8f{J\x92(@'
p430
tp431
Rp432
ssS'DETMERING TIMOTHY J'
p433
(dp434
g3
g5
sg4
I875307
sg6
I52255
sg7
I00
sg8
I-775241
sg9
S'timothy.detmering@enron.com'
p435
sg11
I415657
sg12
g13
(g17
S'z\xf1\xb7{\xd7\x00,@'
p436
tp437
Rp438
sg23
I-315068
sg24
g5
sg25
g5
sg26
g5
sg27
I1105
sg28
g5
sg29
g13
(g17
S'\xfb\x02B\xbbp\xeb)@'
p439
tp440
Rp441
sg33
I425000
sg34
I2027865
sg35
g5
sg36
g5
sg37
I315068
sg38
I210500
sg39
I1204583
sg40
I2027865
sg41
g13
(g17
S'\xd4)]\x15\xb5\x83(@'
p442
tp443
Rp444
ssS'WAKEHAM JOHN'
p445
(dp446
g3
g5
sg4
g5
sg6
I103773
sg7
I00
sg8
g5
sg9
g5
sg11
g5
sg12
g13
(g17
S'\x9fv"E\xec\x89(@'
p447
tp448
Rp449
sg23
g5
sg24
g5
sg25
g5
sg26
g5
sg27
g5
sg28
I109298
sg29
g71
sg33
g5
sg34
g5
sg35
g5
sg36
g5
sg37
g5
sg38
g5
sg39
I213071
sg40
g5
sg41
g71
ssS'POWERS WILLIAM'
p450
(dp451
g3
I653
sg4
g5
sg6
g5
sg7
I00
sg8
I-17500
sg9
S'ken.powers@enron.com'
p452
sg11
g5
sg12
g71
sg23
g5
sg24
I12
sg25
g5
sg26
I26
sg27
g5
sg28
I17500
sg29
g71
sg33
g5
sg34
g5
sg35
I0
sg36
I0
sg37
g5
sg38
g5
sg39
g5
sg40
g5
sg41
g71
ssS'GOLD JOSEPH'
p453
(dp454
g3
g5
sg4
g5
sg6
g5
sg7
I00
sg8
g5
sg9
S'joe.gold@enron.com'
p455
sg11
I304805
sg12
g13
(g17
S'8\xeciU\xbd(-@'
p456
tp457
Rp458
sg23
g5
sg24
g5
sg25
g5
sg26
g5
sg27
I819288
sg28
g5
sg29
g13
(g17
S'\xc4X\x06\x89?\x0e+@'
p459
tp460
Rp461
sg33
I750000
sg34
I877611
sg35
g5
sg36
g5
sg37
I441096
sg38
I272880
sg39
I2146973
sg40
I436515
sg41
g13
(g17
S'\x1e\xcb>\\\x98\x08)@'
p462
tp463
Rp464
ssS'BANNANTINE JAMES M'
p465
(dp466
g3
I566
sg4
g5
sg6
I56301
sg7
I00
sg8
I-5104
sg9
S'james.bannantine@enron.com'
p467
sg11
g5
sg12
g13
(g17
S'\x98\xe3\xc0\xab\xbat+@'
p468
tp469
Rp470
sg23
I-560222
sg24
I465
sg25
g5
sg26
I29
sg27
I864523
sg28
g5
sg29
g71
sg33
g5
sg34
I5243487
sg35
I39
sg36
I0
sg37
I1757552
sg38
I477
sg39
I916197
sg40
I4046157
sg41
g13
(g17
S'\xdb\x9fgq\x89\xab\x18@'
p471
tp472
Rp473
ssS'DUNCAN JOHN H'
p474
(dp475
g3
g5
sg4
g5
sg6
g5
sg7
I00
sg8
I-25000
sg9
g5
sg11
g5
sg12
g13
(g17
S'\xfe\xa6\x1df\x0f\x84&@'
p476
tp477
Rp478
sg23
g5
sg24
g5
sg25
g5
sg26
g5
sg27
g5
sg28
I102492
sg29
g71
sg33
g5
sg34
I371750
sg35
g5
sg36
g5
sg37
g5
sg38
g5
sg39
I77492
sg40
I371750
sg41
g71
ssS'SHAPIRO RICHARD S'
p479
(dp480
g3
I15149
sg4
g5
sg6
I137767
sg7
I00
sg8
g5
sg9
S'richard.shapiro@enron.com'
p481
sg11
g5
sg12
g13
(g17
S'\x19ofy0\xbe+@'
p482
tp483
Rp484
sg23
g5
sg24
I4527
sg25
g5
sg26
I1215
sg27
I705
sg28
g5
sg29
g13
(g17
S'\xd0i\x7f\x05\xfb\xc4*@'
p485
tp486
Rp487
sg33
I650000
sg34
I987001
sg35
I74
sg36
I65
sg37
I379164
sg38
I269076
sg39
I1057548
sg40
I607837
sg41
g13
(g17
S'\xba%\rVh\x01)@'
p488
tp489
Rp490
ssS'SHERRIFF JOHN R'
p491
(dp492
g3
I3187
sg4
g5
sg6
g5
sg7
I00
sg8
g5
sg9
S'john.sherriff@enron.com'
p493
sg11
I554422
sg12
g13
(g17
S'\x94\xfc7w\x8c\x90.@'
p494
tp495
Rp496
sg23
g5
sg24
I2103
sg25
g5
sg26
I92
sg27
I1852186
sg28
g5
sg29
g13
(g17
S'c\xfc\xf5\xb8#q,@'
p497
tp498
Rp499
sg33
I1500000
sg34
I3128982
sg35
I28
sg36
I23
sg37
I1293424
sg38
I428780
sg39
I4335388
sg40
I1835558
sg41
g13
(g17
S'\xa7A\xf9X\xf9\xef)@'
p500
tp501
Rp502
ssS'SHELBY REX'
p503
(dp504
g3
I225
sg4
g5
sg6
I22884
sg7
I01
sg8
I-4167
sg9
S'rex.shelby@enron.com'
p505
sg11
g5
sg12
g13
(g17
S'\xefO\xc2%m\x05-@'
p506
tp507
Rp508
sg23
g5
sg24
I91
sg25
g5
sg26
I39
sg27
I1573324
sg28
g5
sg29
g13
(g17
S'\xfaM\x92Z\x82i(@'
p509
tp510
Rp511
sg33
I200000
sg34
I2493616
sg35
I13
sg36
I14
sg37
I869220
sg38
I211844
sg39
I2003885
sg40
I1624396
sg41
g13
(g17
S'-\xd1\x99J\xf7\x86(@'
p512
tp513
Rp514
ssS'LEMAISTRE CHARLES'
p515
(dp516
g3
g5
sg4
g5
sg6
g5
sg7
I00
sg8
I-25000
sg9
g5
sg11
g5
sg12
g13
(g17
S'i\xb0\xa0\xf43\xc2&@'
p517
tp518
Rp519
sg23
g5
sg24
g5
sg25
g5
sg26
g5
sg27
g5
sg28
I112492
sg29
g71
sg33
g5
sg34
I412878
sg35
g5
sg36
g5
sg37
g5
sg38
g5
sg39
I87492
sg40
I412878
sg41
g71
ssS'DEFFNER JOSEPH M'
p520
(dp521
g3
I714
sg4
g5
sg6
I41626
sg7
I00
sg8
g5
sg9
S'joseph.deffner@enron.com'
p522
sg11
I335349
sg12
g13
(g17
S'\xf6>\x08*\x91\x02,@'
p523
tp524
Rp525
sg23
g5
sg24
I552
sg25
g5
sg26
I74
sg27
I25553
sg28
g5
sg29
g13
(g17
S'[\xee\xe7\xa9\xff\x9b*@'
p526
tp527
Rp528
sg33
I600000
sg34
I159211
sg35
I115
sg36
I4
sg37
I141833
sg38
I206121
sg39
I1208649
sg40
I17378
sg41
g13
(g17
S'8\n\xc3\xa6\xf1x(@'
p529
tp530
Rp531
ssS'KISHKILL JOSEPH G'
p532
(dp533
g3
g5
sg4
g5
sg6
I116335
sg7
I00
sg8
I-51042
sg9
S'joe.kishkill@enron.com'
p534
sg11
g5
sg12
g13
(g17
S'\xb3l\xc2\x10~\xee*@'
p535
tp536
Rp537
sg23
g5
sg24
g5
sg25
g5
sg26
g5
sg27
I465357
sg28
g5
sg29
g71
sg33
g5
sg34
I1034346
sg35
g5
sg36
g5
sg37
I1034346
sg38
I174246
sg39
I704896
sg40
g5
sg41
g13
(g17
S'\xb6M\x86,\xee"(@'
p538
tp539
Rp540
ssS'WHALLEY LAWRENCE G'
p541
(dp542
g3
I6019
sg4
g5
sg6
I57838
sg7
I00
sg8
g5
sg9
S'greg.whalley@enron.com'
p543
sg11
I808346
sg12
g13
(g17
S'\xa66\xb9\xceq\xb7.@'
p544
tp545
Rp546
sg23
g5
sg24
I3920
sg25
g5
sg26
I556
sg27
I301026
sg28
g5
sg29
g13
(g17
S'\x02\xa0\xe5\xe8\x07\xd4-@'
p547
tp548
Rp549
sg33
I3000000
sg34
I6079137
sg35
I186
sg36
I24
sg37
I2796177
sg38
I510364
sg39
I4677574
sg40
I3282960
sg41
g13
(g17
S"\x03\x07\xa6\x7f'I*@"
p550
tp551
Rp552
ssS'MCCONNELL MICHAEL S'
p553
(dp554
g3
I3329
sg4
g5
sg6
I81364
sg7
I00
sg8
g5
sg9
S'mike.mcconnell@enron.com'
p555
sg11
I554422
sg12
g13
(g17
S'\xb5q\x12\xeb\xbe\x1d-@'
p556
tp557
Rp558
sg23
g5
sg24
I2189
sg25
g5
sg26
I2742
sg27
I540
sg28
g5
sg29
g13
(g17
S'.x\x82\x18W\xd2+@'
p559
tp560
Rp561
sg33
I1100000
sg34
I3101279
sg35
I92
sg36
I194
sg37
I1478269
sg38
I365038
sg39
I2101364
sg40
I1623010
sg41
g13
(g17
S'F\xcc~J\x92\x9d)@'
p562
tp563
Rp564
ssS'PIRO JIM'
p565
(dp566
g3
I58
sg4
g5
sg6
g5
sg7
I00
sg8
g5
sg9
S'jim.piro@enron.com'
p567
sg11
g5
sg12
g71
sg23
g5
sg24
I3
sg25
g5
sg26
I16
sg27
g5
sg28
g5
sg29
g71
sg33
g5
sg34
I47304
sg35
I0
sg36
I1
sg37
I47304
sg38
g5
sg39
g5
sg40
g5
sg41
g71
ssS'DELAINEY DAVID W'
p568
(dp569
g3
I3093
sg4
g5
sg6
I86174
sg7
I01
sg8
g5
sg9
S'david.delainey@enron.com'
p570
sg11
I1294981
sg12
g13
(g17
S'D\x0c\xa1\xf3\x17\xbf.@'
p571
tp572
Rp573
sg23
g5
sg24
I2097
sg25
g5
sg26
I3069
sg27
I1661
sg28
g5
sg29
g13
(g17
S'\x02\xa0\xe5\xe8\x07\xd4-@'
p574
tp575
Rp576
sg33
I3000000
sg34
I3614261
sg35
I66
sg36
I609
sg37
I1323148
sg38
I365163
sg39
I4747979
sg40
I2291113
sg41
g13
(g17
S'\x04{\x93*\xbf\x9d)@'
p577
tp578
Rp579
ssS'SULLIVAN-SHAKLOVITZ COLLEEN'
p580
(dp581
g3
g5
sg4
I181993
sg6
g5
sg7
I00
sg8
g5
sg9
g5
sg11
I554422
sg12
g13
(g17
S'\x1f\x14\x8c)6\xa1+@'
p582
tp583
Rp584
sg23
g5
sg24
g5
sg25
g5
sg26
g5
sg27
I162
sg28
g5
sg29
g13
(g17
S"[\xaa\xa2*\x9e\x06'@"
p585
tp586
Rp587
sg33
I100000
sg34
I1362375
sg35
g5
sg36
g5
sg37
g5
sg38
I162779
sg39
I999356
sg40
I1362375
sg41
g13
(g17
S'#\xba\x9a~\x13\x00(@'
p588
tp589
Rp590
ssS'WROBEL BRUCE'
p591
(dp592
g3
g5
sg4
g5
sg6
g5
sg7
I00
sg8
g5
sg9
g5
sg11
g5
sg12
g71
sg23
g5
sg24
g5
sg25
g5
sg26
g5
sg27
g5
sg28
g5
sg29
g71
sg33
g5
sg34
I139130
sg35
g5
sg36
g5
sg37
g5
sg38
g5
sg39
g5
sg40
I139130
sg41
g71
ssS'LINDHOLM TOD A'
p593
(dp594
g3
g5
sg4
I204075
sg6
I57727
sg7
I00
sg8
g5
sg9
S'tod.lindholm@enron.com'
p595
sg11
I175000
sg12
g13
(g17
S'ej\x86y\xb1]+@'
p596
tp597
Rp598
sg23
g5
sg24
g5
sg25
g5
sg26
g5
sg27
I2630
sg28
g5
sg29
g13
(g17
S'\xfaM\x92Z\x82i(@'
p599
tp600
Rp601
sg33
I200000
sg34
I3064208
sg35
g5
sg36
g5
sg37
I514847
sg38
I236457
sg39
I875889
sg40
I2549361
sg41
g13
(g17
S'\t\x1b\xe1:>\xbf(@'
p602
tp603
Rp604
ssS'MEYER JEROME J'
p605
(dp606
g3
g5
sg4
g5
sg6
I2151
sg7
I00
sg8
I-38346
sg9
g5
sg11
g5
sg12
g13
(g17
S'\x1f\xa2\x0bM\xdb\xb1\x1e@'
p607
tp608
Rp609
sg23
g5
sg24
g5
sg25
g5
sg26
g5
sg27
g5
sg28
I38346
sg29
g71
sg33
g5
sg34
g5
sg35
g5
sg36
g5
sg37
g5
sg38
g5
sg39
I2151
sg40
g5
sg41
g71
ssS'LAY KENNETH L'
p610
(dp611
g3
I4273
sg4
I202911
sg6
I99832
sg7
I01
sg8
I-300000
sg9
S'kenneth.lay@enron.com'
p612
sg11
I3600000
sg12
g13
(g17
S'\xe2\xc0q\x1d\xa6t2@'
p613
tp614
Rp615
sg23
g5
sg24
I2411
sg25
I81525000
sg26
I36
sg27
I10359729
sg28
g5
sg29
g13
(g17
S'\xebJV\xef\xd8\x85/@'
p616
tp617
Rp618
sg33
I7000000
sg34
I49110078
sg35
I123
sg36
I16
sg37
I14761694
sg38
I1072321
sg39
I103559793
sg40
I34348384
sg41
g13
(g17
S'z#&\xc3J\xc5+@'
p619
tp620
Rp621
ssS'BUTTS ROBERT H'
p622
(dp623
g3
g5
sg4
g5
sg6
I9410
sg7
I00
sg8
I-75000
sg9
S'bob.butts@enron.com'
p624
sg11
I175000
sg12
g13
(g17
S'\xb88\x9c1\x8e\x1c,@'
p625
tp626
Rp627
sg23
g5
sg24
g5
sg25
g5
sg26
g5
sg27
I150656
sg28
g5
sg29
g13
(g17
S'\xc4X\x06\x89?\x0e+@'
p628
tp629
Rp630
sg33
I750000
sg34
I417619
sg35
g5
sg36
g5
sg37
I417619
sg38
I261516
sg39
I1271582
sg40
g5
sg41
g13
(g17
S'0\x11i\xfe\xd0\xf2(@'
p631
tp632
Rp633
ssS'OLSON CINDY K'
p634
(dp635
g3
I1184
sg4
I77716
sg6
I63791
sg7
I00
sg8
g5
sg9
S'cindy.olson@enron.com'
p636
sg11
I100000
sg12
g13
(g17
S'7Uq\xdcJ0,@'
p637
tp638
Rp639
sg23
g5
sg24
I856
sg25
g5
sg26
I52
sg27
I972
sg28
g5
sg29
g13
(g17
S'\xc4X\x06\x89?\x0e+@'
p640
tp641
Rp642
sg33
I750000
sg34
I2606763
sg35
I20
sg36
I15
sg37
I969729
sg38
I329078
sg39
I1321557
sg40
I1637034
sg41
g13
(g17
S'S\x9a\xa8@yh)@'
p643
tp644
Rp645
ssS'MCDONALD REBECCA'
p646
(dp647
g3
I894
sg4
g5
sg6
g5
sg7
I00
sg8
g5
sg9
S'rebecca.mcdonald@enron.com'
p648
sg11
g5
sg12
g71
sg23
g5
sg24
I720
sg25
g5
sg26
I13
sg27
g5
sg28
g5
sg29
g71
sg33
g5
sg34
I1691366
sg35
I54
sg36
I1
sg37
I934065
sg38
g5
sg39
g5
sg40
I757301
sg41
g71
ssS'CUMBERLAND MICHAEL S'
p649
(dp650
g3
g5
sg4
g5
sg6
I22344
sg7
I00
sg8
g5
sg9
g5
sg11
I275000
sg12
g13
(g17
S'\x06T\xdf\xcc[4+@'
p651
tp652
Rp653
sg23
g5
sg24
g5
sg25
g5
sg26
g5
sg27
I713
sg28
g5
sg29
g13
(g17
S'1\xc6\x8f\xd5\x16b)@'
p654
tp655
Rp656
sg33
I325000
sg34
I207940
sg35
g5
sg36
g5
sg37
I207940
sg38
I184899
sg39
I807956
sg40
g5
sg41
g13
(g17
S'\x8d\xcfk3PA(@'
p657
tp658
Rp659
ssS'GAHN ROBERT S'
p660
(dp661
g3
g5
sg4
I73122
sg6
I50080
sg7
I00
sg8
I-1042
sg9
g5
sg11
g5
sg12
g13
(g17
S'\xc4\x90\x99\xf4\xedk+@'
p662
tp663
Rp664
sg23
g5
sg24
g5
sg25
g5
sg26
g5
sg27
I76547
sg28
g5
sg29
g13
(g17
S'\xc3L[\x91\xa8H*@'
p665
tp666
Rp667
sg33
I509870
sg34
I318607
sg35
g5
sg36
g5
sg37
I235370
sg38
I192008
sg39
I900585
sg40
I83237
sg41
g13
(g17
S'\x14\xf2\xcd1\xa1T(@'
p668
tp669
Rp670
ssS'MCCLELLAN GEORGE'
p671
(dp672
g3
I1744
sg4
g5
sg6
I228763
sg7
I00
sg8
I-125000
sg9
S'george.mcclellan@enron.com'
p673
sg11
g5
sg12
g13
(g17
S'<\xf1yu5/,@'
p674
tp675
Rp676
sg23
g5
sg24
I1469
sg25
g5
sg26
I49
sg27
I51587
sg28
g5
sg29
g13
(g17
S'\x1e\xebM\xc9\x98k+@'
p677
tp678
Rp679
sg33
I900000
sg34
I947861
sg35
I52
sg36
I0
sg37
I441096
sg38
I263413
sg39
I1318763
sg40
I506765
sg41
g13
(g17
S'\xa1\x94\xf5V\x84\xf6(@'
p680
tp681
Rp682
ssS'HERMANN ROBERT J'
p683
(dp684
g3
g5
sg4
g5
sg6
I48357
sg7
I00
sg8
I-280000
sg9
S'robert.hermann@enron.com'
p685
sg11
I150000
sg12
g13
(g17
S'@y\xf7\xf6\xde&,@'
p686
tp687
Rp688
sg23
g5
sg24
g5
sg25
g5
sg26
g5
sg27
I416441
sg28
g5
sg29
g13
(g17
S'\xa6\xf5h\x80\xec\xea*@'
p689
tp690
Rp691
sg33
I700000
sg34
I668132
sg35
g5
sg36
g5
sg37
I480632
sg38
I262663
sg39
I1297461
sg40
I187500
sg41
g13
(g17
S"'\xa1,\x9d\x0e\xf5(@"
p692
tp693
Rp694
ssS'SCRIMSHAW MATTHEW'
p695
(dp696
g3
g5
sg4
g5
sg6
g5
sg7
I00
sg8
g5
sg9
S'matthew.scrimshaw@enron.com'
p697
sg11
g5
sg12
g71
sg23
g5
sg24
g5
sg25
g5
sg26
g5
sg27
g5
sg28
g5
sg29
g71
sg33
g5
sg34
I759557
sg35
g5
sg36
g5
sg37
g5
sg38
g5
sg39
g5
sg40
I759557
sg41
g71
ssS'GATHMANN WILLIAM D'
p698
(dp699
g3
g5
sg4
g5
sg6
g5
sg7
I00
sg8
g5
sg9
g5
sg11
g5
sg12
g71
sg23
I-72419
sg24
g5
sg25
g5
sg26
g5
sg27
g5
sg28
g5
sg29
g71
sg33
g5
sg34
I1945360
sg35
g5
sg36
g5
sg37
I264013
sg38
g5
sg39
g5
sg40
I1753766
sg41
g71
ssS'HAEDICKE MARK E'
p700
(dp701
g3
I4009
sg4
I2157527
sg6
I76169
sg7
I00
sg8
I-934484
sg9
S'mark.haedicke@enron.com'
p702
sg11
I983346
sg12
g13
(g17
S'\xba\x14\xeb~\xf5T.@'
p703
tp704
Rp705
sg23
I-329825
sg24
I1847
sg25
g5
sg26
I1941
sg27
I52382
sg28
g5
sg29
g13
(g17
S"\xb8s'z\x19\xe9+@"
p706
tp707
Rp708
sg33
I1150000
sg34
I803094
sg35
I180
sg36
I61
sg37
I524169
sg38
I374125
sg39
I3859065
sg40
I608750
sg41
g13
(g17
S"\xfa\xd7\xed')\xaa)@"
p709
tp710
Rp711
ssS'BOWEN JR RAYMOND M'
p712
(dp713
g3
I1858
sg4
g5
sg6
I65907
sg7
I01
sg8
I-833
sg9
S'raymond.bowen@enron.com'
p714
sg11
I974293
sg12
g13
(g17
S'|\x9e]iI\x98-@'
p715
tp716
Rp717
sg23
g5
sg24
I1593
sg25
g5
sg26
I27
sg27
I1621
sg28
g5
sg29
g13
(g17
S'\xe0\xe7\xb3\xe81;,@'
p718
tp719
Rp720
sg33
I1350000
sg34
I252055
sg35
I140
sg36
I15
sg37
I252055
sg38
I278601
sg39
I2669589
sg40
g5
sg41
g13
(g17
S'#\xf2\xcc\xe87\x13)@'
p721
tp722
Rp723
ssS'GILLIS JOHN'
p724
(dp725
g3
g5
sg4
g5
sg6
g5
sg7
I00
sg8
g5
sg9
g5
sg11
g5
sg12
g71
sg23
g5
sg24
g5
sg25
g5
sg26
g5
sg27
g5
sg28
g5
sg29
g71
sg33
g5
sg34
I85641
sg35
g5
sg36
g5
sg37
I75838
sg38
g5
sg39
g5
sg40
I9803
sg41
g71
ssS'FITZGERALD JAY L'
p726
(dp727
g3
I936
sg4
g5
sg6
I23870
sg7
I00
sg8
g5
sg9
S'jay.fitzgerald@enron.com'
p728
sg11
I556416
sg12
g13
(g17
S'\x00\xcb\x9fP8S,@'
p729
tp730
Rp731
sg23
g5
sg24
I723
sg25
g5
sg26
I16
sg27
I285414
sg28
g5
sg29
g13
(g17
S'\x07RyP\x08\x88)@'
p732
tp733
Rp734
sg33
I350000
sg34
I1621236
sg35
I1
sg36
I8
sg37
I956775
sg38
I199157
sg39
I1414857
sg40
I664461
sg41
g13
(g17
S'\xb9\x8b\xbb\xb7Xg(@'
p735
tp736
Rp737
ssS'MORAN MICHAEL P'
p738
(dp739
g3
I672
sg4
g5
sg6
g5
sg7
I00
sg8
g5
sg9
S'michael.moran@enron.com'
p740
sg11
g5
sg12
g71
sg23
g5
sg24
I127
sg25
g5
sg26
I19
sg27
g5
sg28
g5
sg29
g71
sg33
g5
sg34
I221141
sg35
I0
sg36
I0
sg37
I161602
sg38
g5
sg39
g5
sg40
I59539
sg41
g71
ssS'REDMOND BRIAN L'
p741
(dp742
g3
I1671
sg4
g5
sg6
I14689
sg7
I00
sg8
g5
sg9
S'brian.redmond@enron.com'
p743
sg11
g5
sg12
g13
(g17
S".\xd0c\x04|>'@"
p744
tp745
Rp746
sg23
g5
sg24
I1063
sg25
g5
sg26
I221
sg27
g5
sg28
g5
sg29
g71
sg33
g5
sg34
I7890324
sg35
I204
sg36
I49
sg37
I381285
sg38
I96840
sg39
I111529
sg40
I7509039
sg41
g13
(g17
S'!\xc3\x03p-\xf6&@'
p747
tp748
Rp749
ssS'BAZELIDES PHILIP J'
p750
(dp751
g3
g5
sg4
I684694
sg6
g5
sg7
I00
sg8
g5
sg9
g5
sg11
I93750
sg12
g13
(g17
S'\xbe\x10\x07\xabfT+@'
p752
tp753
Rp754
sg23
g5
sg24
g5
sg25
g5
sg26
g5
sg27
I874
sg28
g5
sg29
g71
sg33
g5
sg34
I1599641
sg35
g5
sg36
g5
sg37
g5
sg38
I80818
sg39
I860136
sg40
I1599641
sg41
g13
(g17
S'\xeb\x9ea\xb3\x93\x99&@'
p755
tp756
Rp757
ssS'BELDEN TIMOTHY N'
p758
(dp759
g3
I7991
sg4
I2144013
sg6
I17355
sg7
I01
sg8
I-2334434
sg9
S'tim.belden@enron.com'
p760
sg11
g5
sg12
g13
(g17
S'\xb8AW.\x86\n/@'
p761
tp762
Rp763
sg23
g5
sg24
I5521
sg25
g5
sg26
I484
sg27
I210698
sg28
g5
sg29
g13
(g17
S'rvh\xd8\x8d\xf2.@'
p764
tp765
Rp766
sg33
I5249999
sg34
I1110705
sg35
I228
sg36
I108
sg37
I157569
sg38
I213999
sg39
I5501630
sg40
I953136
sg41
g13
(g17
S'\x80MK\xe5%\x8c(@'
p767
tp768
Rp769
ssS'DURAN WILLIAM D'
p770
(dp771
g3
I904
sg4
g5
sg6
I25785
sg7
I00
sg8
g5
sg9
S'w.duran@enron.com'
p772
sg11
I1105218
sg12
g13
(g17
S'\xceJ\xe4\xa4\xc4\x1b-@'
p773
tp774
Rp775
sg23
g5
sg24
I599
sg25
g5
sg26
I12
sg27
I1568
sg28
g5
sg29
g13
(g17
S'\xc4X\x06\x89?\x0e+@'
p776
tp777
Rp778
sg33
I750000
sg34
I1640910
sg35
I106
sg36
I3
sg37
I189041
sg38
I210692
sg39
I2093263
sg40
I1451869
sg41
g13
(g17
S'\xde\xd9\xe1\x94,\x84(@'
p779
tp780
Rp781
ssS'THORN TERENCE H'
p782
(dp783
g3
I266
sg4
I16586
sg6
I46145
sg7
I00
sg8
g5
sg9
S'terence.thorn@enron.com'
p784
sg11
I200000
sg12
g13
(g17
S'\xf6\xae\x06:\x12r+@'
p785
tp786
Rp787
sg23
g5
sg24
I73
sg25
g5
sg26
I41
sg27
I426629
sg28
g5
sg29
g71
sg33
g5
sg34
I4817796
sg35
I0
sg36
I0
sg37
I365320
sg38
I222093
sg39
I911453
sg40
I4452476
sg41
g13
(g17
S"\xda\x8b@\xed'\x9f(@"
p788
tp789
Rp790
ssS'FASTOW ANDREW S'
p791
(dp792
g3
g5
sg4
g5
sg6
I55921
sg7
I01
sg8
I-1386055
sg9
S'andrew.fastow@enron.com'
p793
sg11
I1736055
sg12
g13
(g17
S'p\xabd\xbc\xe4f-@'
p794
tp795
Rp796
sg23
g5
sg24
g5
sg25
g5
sg26
g5
sg27
I277464
sg28
g5
sg29
g13
(g17
S"o\ro5\xdf',@"
p797
tp798
Rp799
sg33
I1300000
sg34
I1794412
sg35
g5
sg36
g5
sg37
I1794412
sg38
I440698
sg39
I2424083
sg40
g5
sg41
g13
(g17
S'\x8d5\xcf\xcc\x02\xfe)@'
p800
tp801
Rp802
ssS'FOY JOE'
p803
(dp804
g3
I57
sg4
I181755
sg6
g5
sg7
I00
sg8
g5
sg9
S'tracy.foy@enron.com'
p805
sg11
g5
sg12
g13
(g17
S's\xccnM\x888(@'
p806
tp807
Rp808
sg23
g5
sg24
I2
sg25
g5
sg26
I13
sg27
g5
sg28
g5
sg29
g71
sg33
g5
sg34
I343434
sg35
I0
sg36
I0
sg37
g5
sg38
g5
sg39
I181755
sg40
I343434
sg41
g71
ssS'CALGER CHRISTOPHER F'
p809
(dp810
g3
I2598
sg4
g5
sg6
I35818
sg7
I01
sg8
I-262500
sg9
S'christopher.calger@enron.com'
p811
sg11
I375304
sg12
g13
(g17
S'\xca\x11~:\x9b\x9e,@'
p812
tp813
Rp814
sg23
g5
sg24
I2188
sg25
g5
sg26
I144
sg27
I486
sg28
g5
sg29
g13
(g17
S'\tj\xaex\xca\x13,@'
p815
tp816
Rp817
sg33
I1250000
sg34
I126027
sg35
I199
sg36
I25
sg37
I126027
sg38
I240189
sg39
I1639297
sg40
g5
sg41
g13
(g17
S'\xd66\x91\xc8B\xc7(@'
p818
tp819
Rp820
ssS'RICE KENNETH D'
p821
(dp822
g3
I905
sg4
g5
sg6
I46950
sg7
I01
sg8
I-3504386
sg9
S'ken.rice@enron.com'
p823
sg11
I1617011
sg12
g13
(g17
S'\x9c\x07b\x99\xcbC*@'
p824
tp825
Rp826
sg23
g5
sg24
I864
sg25
g5
sg26
I18
sg27
I174839
sg28
g5
sg29
g13
(g17
S'\xad\x03w\x8f\x10\xc0,@'
p827
tp828
Rp829
sg33
I1750000
sg34
I22542539
sg35
I42
sg36
I4
sg37
I2748364
sg38
I420636
sg39
I505050
sg40
I19794175
sg41
g13
(g17
S"\x89pQ\xe5'\xe6)@"
p830
tp831
Rp832
ssS'KAMINSKI WINCENTY J'
p833
(dp834
g3
I4607
sg4
g5
sg6
I83585
sg7
I00
sg8
g5
sg9
S'vince.kaminski@enron.com'
p835
sg11
I323466
sg12
g13
(g17
S'\xff$C@+\xcc+@'
p836
tp837
Rp838
sg23
g5
sg24
I583
sg25
g5
sg26
I14368
sg27
I4669
sg28
g5
sg29
g13
(g17
S'\x99\xf1\x81\x8af\xcc)@'
p839
tp840
Rp841
sg33
I400000
sg34
I976037
sg35
I41
sg36
I171
sg37
I126027
sg38
I275101
sg39
I1086821
sg40
I850010
sg41
g13
(g17
S'W\xb1\x00\xda\xbe\x0c)@'
p842
tp843
Rp844
ssS'LOCKHART EUGENE E'
p845
(dp846
g3
g5
sg4
g5
sg6
g5
sg7
I00
sg8
g5
sg9
g5
sg11
g5
sg12
g71
sg23
g5
sg24
g5
sg25
g5
sg26
g5
sg27
g5
sg28
g5
sg29
g71
sg33
g5
sg34
g5
sg35
g5
sg36
g5
sg37
g5
sg38
g5
sg39
g5
sg40
g5
sg41
g71
ssS'COX DAVID'
p847
(dp848
g3
I102
sg4
g5
sg6
I27861
sg7
I00
sg8
I-41250
sg9
S'chip.cox@enron.com'
p849
sg11
g5
sg12
g13
(g17
S'bX\xbd\xf9\xfc\xd2+@'
p850
tp851
Rp852
sg23
g5
sg24
I71
sg25
g5
sg26
I33
sg27
I494
sg28
g5
sg29
g13
(g17
S'8\x95q\xbaJ/+@'
p853
tp854
Rp855
sg33
I800000
sg34
I495633
sg35
I0
sg36
I4
sg37
I378082
sg38
I314288
sg39
I1101393
sg40
I117551
sg41
g13
(g17
S'\xc1\xd6\xb3\xe6\xedP)@'
p856
tp857
Rp858
ssS'OVERDYKE JR JERE C'
p859
(dp860
g3
g5
sg4
g5
sg6
I18834
sg7
I00
sg8
g5
sg9
S'jere.overdyke@enron.com'
p861
sg11
I135836
sg12
g13
(g17
S'"\xf1 \x81R\xdb(@'
p862
tp863
Rp864
sg23
g5
sg24
g5
sg25
g5
sg26
g5
sg27
I176
sg28
g5
sg29
g71
sg33
g5
sg34
I7307594
sg35
g5
sg36
g5
sg37
I2041016
sg38
I94941
sg39
I249787
sg40
I5266578
sg41
g13
(g17
S'/\x1a\xbc\x9f\t\xec&@'
p865
tp866
Rp867
ssS'PEREIRA PAULO V. FERRAZ'
p868
(dp869
g3
g5
sg4
g5
sg6
I27942
sg7
I00
sg8
I-101250
sg9
g5
sg11
g5
sg12
g13
(g17
S'\xeb9\xbb8\xccy$@'
p870
tp871
Rp872
sg23
g5
sg24
g5
sg25
g5
sg26
g5
sg27
g5
sg28
I101250
sg29
g71
sg33
g5
sg34
g5
sg35
g5
sg36
g5
sg37
g5
sg38
g5
sg39
I27942
sg40
g5
sg41
g71
ssS'STABLER FRANK'
p873
(dp874
g3
g5
sg4
g5
sg6
I16514
sg7
I00
sg8
g5
sg9
S'frank.stabler@enron.com'
p875
sg11
g5
sg12
g13
(g17
S'\x8db\xbe{\xef\xd7+@'
p876
tp877
Rp878
sg23
g5
sg24
g5
sg25
g5
sg26
g5
sg27
I356071
sg28
g5
sg29
g13
(g17
S'\x01\\\xa0i\xa6>*@'
p879
tp880
Rp881
sg33
I500000
sg34
I511734
sg35
g5
sg36
g5
sg37
I511734
sg38
I239502
sg39
I1112087
sg40
g5
sg41
g13
(g17
S'Gu\x11Y\xcb\xc5(@'
p882
tp883
Rp884
ssS'SKILLING JEFFREY K'
p885
(dp886
g3
I3627
sg4
g5
sg6
I29336
sg7
I01
sg8
g5
sg9
S'jeff.skilling@enron.com'
p887
sg11
I1920000
sg12
g13
(g17
S'\xbd\x03%\x05%\xf4/@'
p888
tp889
Rp890
sg23
g5
sg24
I2042
sg25
g5
sg26
I108
sg27
I22122
sg28
g5
sg29
g13
(g17
S'\x83\xe07\x10\x99\x13/@'
p891
tp892
Rp893
sg33
I5600000
sg34
I26093672
sg35
I88
sg36
I30
sg37
I6843672
sg38
I1111258
sg39
I8682716
sg40
I19250000
sg41
g13
(g17
S':`l\xbd\x8d\xd7+@'
p894
tp895
Rp896
ssS'BLAKE JR. NORMAN P'
p897
(dp898
g3
g5
sg4
g5
sg6
I1279
sg7
I00
sg8
I-113784
sg9
g5
sg11
g5
sg12
g13
(g17
S'\xb23\xab\x9b\x86\x9d\x1c@'
p899
tp900
Rp901
sg23
g5
sg24
g5
sg25
g5
sg26
g5
sg27
g5
sg28
I113784
sg29
g71
sg33
g5
sg34
g5
sg35
g5
sg36
g5
sg37
g5
sg38
g5
sg39
I1279
sg40
g5
sg41
g71
ssS'SHERRICK JEFFREY B'
p902
(dp903
g3
I613
sg4
g5
sg6
g5
sg7
I00
sg8
g5
sg9
S'jeffrey.sherrick@enron.com'
p904
sg11
g5
sg12
g71
sg23
g5
sg24
I583
sg25
g5
sg26
I25
sg27
g5
sg28
g5
sg29
g71
sg33
g5
sg34
I1832468
sg35
I39
sg36
I18
sg37
I405999
sg38
g5
sg39
g5
sg40
I1426469
sg41
g71
ssS'PRENTICE JAMES'
p905
(dp906
g3
g5
sg4
I564348
sg6
g5
sg7
I00
sg8
g5
sg9
S'james.prentice@enron.com'
p907
sg11
g5
sg12
g13
(g17
S'G\x0fKa\xa2|*@'
p908
tp909
Rp910
sg23
g5
sg24
g5
sg25
g5
sg26
g5
sg27
g5
sg28
g5
sg29
g71
sg33
g5
sg34
I1095040
sg35
g5
sg36
g5
sg37
I208809
sg38
g5
sg39
I564348
sg40
I886231
sg41
g71
ssS'GRAY RODNEY'
p911
(dp912
g3
g5
sg4
I93585
sg6
g5
sg7
I00
sg8
g5
sg9
g5
sg11
I365625
sg12
g13
(g17
S'+\xaf\x17\x04\x9c\xe7+@'
p913
tp914
Rp915
sg23
g5
sg24
g5
sg25
g5
sg26
g5
sg27
I680833
sg28
g5
sg29
g71
sg33
g5
sg34
g5
sg35
g5
sg36
g5
sg37
g5
sg38
I6615
sg39
I1146658
sg40
g5
sg41
g13
(g17
S'`)\x8b\xd8\x1c\x98!@'
p916
tp917
Rp918
ssS'PICKERING MARK R'
p919
(dp920
g3
I898
sg4
g5
sg6
I31653
sg7
I00
sg8
g5
sg9
S'mark.pickering@enron.com'
p921
sg11
g5
sg12
g13
(g17
S'\xbc=w\x9b\xecH,@'
p922
tp923
Rp924
sg23
g5
sg24
I728
sg25
I400000
sg26
I67
sg27
g5
sg28
g5
sg29
g13
(g17
S'\xbcJ\xf8y\x1b9)@'
p925
tp926
Rp927
sg33
I300000
sg34
I28798
sg35
I7
sg36
I0
sg37
g5
sg38
I655037
sg39
I1386690
sg40
I28798
sg41
g13
(g17
S'\x94S:\xd0\xee\xc8*@'
p928
tp929
Rp930
ssS'THE TRAVEL AGENCY IN THE PARK'
p931
(dp932
g3
g5
sg4
g5
sg6
g5
sg7
I00
sg8
g5
sg9
g5
sg11
g5
sg12
g13
(g17
S'\xf8\x9e\x16\xa5m\x99)@'
p933
tp934
Rp935
sg23
g5
sg24
g5
sg25
g5
sg26
g5
sg27
I362096
sg28
g5
sg29
g71
sg33
g5
sg34
g5
sg35
g5
sg36
g5
sg37
g5
sg38
g5
sg39
I362096
sg40
g5
sg41
g71
ssS'NOLES JAMES L'
p936
(dp937
g3
g5
sg4
I774401
sg6
g5
sg7
I00
sg8
g5
sg9
g5
sg11
g5
sg12
g13
(g17
S'\xe2y\x8c\x04\xa4\x1e+@'
p938
tp939
Rp940
sg23
I-94556
sg24
g5
sg25
g5
sg26
g5
sg27
g5
sg28
g5
sg29
g71
sg33
g5
sg34
I368705
sg35
g5
sg36
g5
sg37
I463261
sg38
g5
sg39
I774401
sg40
g5
sg41
g71
ssS'KEAN STEVEN J'
p941
(dp942
g3
I12754
sg4
g5
sg6
I41953
sg7
I00
sg8
g5
sg9
S'steven.kean@enron.com'
p943
sg11
I300000
sg12
g13
(g17
S'\x17\xd8\xb7\xd4V\xbf,@'
p944
tp945
Rp946
sg23
g5
sg24
I3639
sg25
g5
sg26
I6759
sg27
I1231
sg28
g5
sg29
g13
(g17
S'\xa0\xff\x8f\x99\x8a\xa1+@'
p947
tp948
Rp949
sg33
I1000000
sg34
I6153642
sg35
I140
sg36
I387
sg37
I4131594
sg38
I404338
sg39
I1747522
sg40
I2022048
sg41
g13
(g17
S'\x9e\xf9<]\xec\xd1)@'
p950
tp951
Rp952
ssS'FOWLER PEGGY'
p953
(dp954
g3
I517
sg4
g5
sg6
g5
sg7
I00
sg8
g5
sg9
S'kulvinder.fowler@enron.com'
p955
sg11
g5
sg12
g71
sg23
g5
sg24
I10
sg25
g5
sg26
I36
sg27
g5
sg28
g5
sg29
g71
sg33
g5
sg34
I1884748
sg35
I0
sg36
I0
sg37
I560170
sg38
g5
sg39
g5
sg40
I1324578
sg41
g71
ssS'WASAFF GEORGE'
p956
(dp957
g3
I400
sg4
I831299
sg6
g5
sg7
I00
sg8
I-583325
sg9
S'george.wasaff@enron.com'
p958
sg11
I200000
sg12
g13
(g17
S'\x9b\xc37\x06\xdb\xb2+@'
p959
tp960
Rp961
sg23
g5
sg24
I337
sg25
g5
sg26
I30
sg27
I1425
sg28
g5
sg29
g13
(g17
S'1\xc6\x8f\xd5\x16b)@'
p962
tp963
Rp964
sg33
I325000
sg34
I2056427
sg35
I22
sg36
I7
sg37
I388167
sg38
I259996
sg39
I1034395
sg40
I1668260
sg41
g13
(g17
S'\x89\x807\xf2\xd4\xef(@'
p965
tp966
Rp967
ssS'WHITE JR THOMAS E'
p968
(dp969
g3
g5
sg4
g5
sg6
I81353
sg7
I00
sg8
g5
sg9
S'thomas.white@enron.com'
p970
sg11
g5
sg12
g13
(g17
S'\xd91\xac\xc2X\xf3,@'
p971
tp972
Rp973
sg23
g5
sg24
g5
sg25
g5
sg26
g5
sg27
I1085463
sg28
g5
sg29
g13
(g17
S'\x7fG^\x99\xb4\x08*@'
p974
tp975
Rp976
sg33
I450000
sg34
I15144123
sg35
g5
sg36
g5
sg37
I13847074
sg38
I317543
sg39
I1934359
sg40
I1297049
sg41
g13
(g17
S'\xd4\x97\x18f4V)@'
p977
tp978
Rp979
ssS'CHRISTODOULOU DIOMEDES'
p980
(dp981
g3
g5
sg4
g5
sg6
g5
sg7
I00
sg8
g5
sg9
S'diomedes.christodoulou@enron.com'
p982
sg11
g5
sg12
g71
sg23
g5
sg24
g5
sg25
g5
sg26
g5
sg27
g5
sg28
g5
sg29
g71
sg33
g5
sg34
I6077885
sg35
g5
sg36
g5
sg37
I950730
sg38
g5
sg39
g5
sg40
I5127155
sg41
g71
ssS'ALLEN PHILLIP K'
p983
(dp984
g3
I2902
sg4
I2869717
sg6
I13868
sg7
I00
sg8
I-3081055
sg9
S'phillip.allen@enron.com'
p985
sg11
I304805
sg12
g13
(g17
S'\xef_o\x16\xdb\xa1.@'
p986
tp987
Rp988
sg23
I-126027
sg24
I1407
sg25
g5
sg26
I2195
sg27
I152
sg28
g5
sg29
g13
(g17
S'\xccN\x1ez?}.@'
p989
tp990
Rp991
sg33
I4175000
sg34
I1729541
sg35
I47
sg36
I65
sg37
I126027
sg38
I201955
sg39
I4484442
sg40
I1729541
sg41
g13
(g17
S'\x1c\x08q\\}n(@'
p992
tp993
Rp994
ssS'SHARP VICTORIA T'
p995
(dp996
g3
I3136
sg4
I187469
sg6
I116337
sg7
I00
sg8
g5
sg9
S'vicki.sharp@enron.com'
p997
sg11
I422158
sg12
g13
(g17
S'\x05\xbc\xb9n\x9c\x8a,@'
p998
tp999
Rp1000
sg23
g5
sg24
I2477
sg25
g5
sg26
I136
sg27
I2401
sg28
g5
sg29
g13
(g17
S'[\xee\xe7\xa9\xff\x9b*@'
p1001
tp1002
Rp1003
sg33
I600000
sg34
I494136
sg35
I24
sg36
I6
sg37
I213063
sg38
I248146
sg39
I1576511
sg40
I281073
sg41
g13
(g17
S'\xb0\xde\xbc\x92\xf2\xd7(@'
p1004
tp1005
Rp1006
ssS'JAEDICKE ROBERT'
p1007
(dp1008
g3
g5
sg4
g5
sg6
g5
sg7
I00
sg8
I-25000
sg9
g5
sg11
g5
sg12
g13
(g17
S'\xcfrz\xa4\xd2\xab&@'
p1009
tp1010
Rp1011
sg23
I-44093
sg24
g5
sg25
g5
sg26
g5
sg27
g5
sg28
I108750
sg29
g71
sg33
g5
sg34
I431750
sg35
g5
sg36
g5
sg37
I44093
sg38
g5
sg39
I83750
sg40
I431750
sg41
g71
ssS'WINOKUR JR. HERBERT S'
p1012
(dp1013
g3
g5
sg4
g5
sg6
I1413
sg7
I00
sg8
I-25000
sg9
g5
sg11
g5
sg12
g13
(g17
S'v\xd6\r&\\\xb3&@'
p1014
tp1015
Rp1016
sg23
g5
sg24
g5
sg25
g5
sg26
g5
sg27
g5
sg28
I108579
sg29
g71
sg33
g5
sg34
g5
sg35
g5
sg36
g5
sg37
g5
sg38
g5
sg39
I84992
sg40
g5
sg41
g71
ssS'BROWN MICHAEL'
p1017
(dp1018
g3
I1486
sg4
g5
sg6
I49288
sg7
I00
sg8
g5
sg9
S'michael.brown@enron.com'
p1019
sg11
g5
sg12
g13
(g17
S'\xfc\xfd\xe5\x18b\x9c%@'
p1020
tp1021
Rp1022
sg23
g5
sg24
I761
sg25
g5
sg26
I41
sg27
g5
sg28
g5
sg29
g71
sg33
g5
sg34
g5
sg35
I13
sg36
I1
sg37
g5
sg38
g5
sg39
I49288
sg40
g5
sg41
g71
ssS'BADUM JAMES P'
p1023
(dp1024
g3
g5
sg4
I178980
sg6
I3486
sg7
I00
sg8
g5
sg9
g5
sg11
g5
sg12
g13
(g17
S'\x1dz\x95\t\x88:(@'
p1025
tp1026
Rp1027
sg23
g5
sg24
g5
sg25
g5
sg26
g5
sg27
g5
sg28
g5
sg29
g71
sg33
g5
sg34
I257817
sg35
g5
sg36
g5
sg37
g5
sg38
g5
sg39
I182466
sg40
I257817
sg41
g71
ssS'HUGHES JAMES A'
p1028
(dp1029
g3
I719
sg4
g5
sg6
g5
sg7
I00
sg8
g5
sg9
S'james.hughes@enron.com'
p1030
sg11
g5
sg12
g71
sg23
g5
sg24
I589
sg25
g5
sg26
I34
sg27
g5
sg28
g5
sg29
g71
sg33
g5
sg34
I1118394
sg35
I35
sg36
I5
sg37
I363428
sg38
g5
sg39
g5
sg40
I754966
sg41
g71
ssS'REYNOLDS LAWRENCE'
p1031
(dp1032
g3
g5
sg4
I51365
sg6
I8409
sg7
I00
sg8
I-200000
sg9
g5
sg11
I156250
sg12
g13
(g17
S'\xac\xe3I}G\xc5)@'
p1033
tp1034
Rp1035
sg23
I-140264
sg24
g5
sg25
g5
sg26
g5
sg27
I202052
sg28
g5
sg29
g13
(g17
S"[\xaa\xa2*\x9e\x06'@"
p1036
tp1037
Rp1038
sg33
I100000
sg34
I4221891
sg35
g5
sg36
g5
sg37
I201483
sg38
I76399
sg39
I394475
sg40
I4160672
sg41
g13
(g17
S'\xdf\xba\x1d\x82\xc9|&@'
p1039
tp1040
Rp1041
ssS'DIMICHELE RICHARD G'
p1042
(dp1043
g3
g5
sg4
g5
sg6
I35812
sg7
I00
sg8
g5
sg9
S'richard.dimichele@enron.com'
p1044
sg11
I694862
sg12
g13
(g17
S'\x04\x7f\x8c\x03\xf1Z-@'
p1045
tp1046
Rp1047
sg23
g5
sg24
g5
sg25
g5
sg26
g5
sg27
I374689
sg28
g5
sg29
g13
(g17
S'\xa0\xff\x8f\x99\x8a\xa1+@'
p1048
tp1049
Rp1050
sg33
I1000000
sg34
I8317782
sg35
g5
sg36
g5
sg37
I126027
sg38
I262788
sg39
I2368151
sg40
I8191755
sg41
g13
(g17
S'\x1c\xe1\xc2\xf9L\xf5(@'
p1051
tp1052
Rp1053
ssS'BHATNAGAR SANJAY'
p1054
(dp1055
g3
I523
sg4
g5
sg6
g5
sg7
I00
sg8
g5
sg9
S'sanjay.bhatnagar@enron.com'
p1056
sg11
g5
sg12
g13
(g17
S'h\xbaL\xeb\xb3\x8d0@'
p1057
tp1058
Rp1059
sg23
I15456290
sg24
I463
sg25
g5
sg26
I29
sg27
I137864
sg28
I137864
sg29
g71
sg33
g5
sS'total_stock_value'
p1060
S'NaN'
p1061
sg35
I0
sg36
I1
sg37
I-2604490
sg38
g5
sg39
I15456290
sg40
I2604490
sg41
g71
ssS'CARTER REBECCA C'
p1062
(dp1063
g3
I312
sg4
g5
sg6
g5
sg7
I00
sg8
I-159792
sg9
S'rebecca.carter@enron.com'
p1064
sg11
I75000
sg12
g13
(g17
S'7i\xa2\xfc"\'*@'
p1065
tp1066
Rp1067
sg23
I-307301
sg24
I196
sg25
g5
sg26
I15
sg27
I540
sg28
g5
sg29
g13
(g17
S'\xbcJ\xf8y\x1b9)@'
p1068
tp1069
Rp1070
sg33
I300000
sg34
g5
sg35
I29
sg36
I7
sg37
I307301
sg38
I261809
sg39
I477557
sg40
g5
sg41
g13
(g17
S'\xf3um\xc3c\xf3(@'
p1071
tp1072
Rp1073
ssS'BUCHANAN HAROLD G'
p1074
(dp1075
g3
I1088
sg4
g5
sg6
I600
sg7
I00
sg8
g5
sg9
S'john.buchanan@enron.com'
p1076
sg11
I304805
sg12
g13
(g17
S'\xectT0\xc7\xbc+@'
p1077
tp1078
Rp1079
sg23
g5
sg24
I23
sg25
g5
sg26
I125
sg27
I1215
sg28
g5
sg29
g13
(g17
S'\x01\\\xa0i\xa6>*@'
p1080
tp1081
Rp1082
sg33
I500000
sg34
I1014505
sg35
I0
sg36
I0
sg37
I189041
sg38
I248017
sg39
I1054637
sg40
I825464
sg41
g13
(g17
S'\xa20\xc1j\xae\xd7(@'
p1083
tp1084
Rp1085
ssS'YEAP SOON'
p1086
(dp1087
g3
g5
sg4
g5
sg6
I55097
sg7
I00
sg8
g5
sg9
g5
sg11
g5
sg12
g13
(g17
S'u\x11Wom\xd5%@'
p1088
tp1089
Rp1090
sg23
g5
sg24
g5
sg25
g5
sg26
g5
sg27
g5
sg28
g5
sg29
g71
sg33
g5
sg34
I192758
sg35
g5
sg36
g5
sg37
g5
sg38
g5
sg39
I55097
sg40
I192758
sg41
g71
ssS'MURRAY JULIA H'
p1091
(dp1092
g3
I2192
sg4
g5
sg6
I57580
sg7
I00
sg8
g5
sg9
S'julia.murray@enron.com'
p1093
sg11
I125000
sg12
g13
(g17
S'\x18\xf6\x1e\x85\t7+@'
p1094
tp1095
Rp1096
sg23
g5
sg24
I395
sg25
g5
sg26
I45
sg27
I330
sg28
g5
sg29
g13
(g17
S'\x99\xf1\x81\x8af\xcc)@'
p1097
tp1098
Rp1099
sg33
I400000
sg34
I597461
sg35
I11
sg36
I2
sg37
I196983
sg38
I229284
sg39
I812194
sg40
I400478
sg41
g13
(g17
S'f\x9d\xd4\x8fx\xaf(@'
p1100
tp1101
Rp1102
ssS'GARLAND C KEVIN'
p1103
(dp1104
g3
I209
sg4
g5
sg6
I48405
sg7
I00
sg8
g5
sg9
S'kevin.garland@enron.com'
p1105
sg11
I375304
sg12
g13
(g17
S'\x9c\x05[\xddV\x87,@'
p1106
tp1107
Rp1108
sg23
g5
sg24
I178
sg25
g5
sg26
I44
sg27
I60814
sg28
g5
sg29
g13
(g17
S'\x9a\xa61\xebTN+@'
p1109
tp1110
Rp1111
sg33
I850000
sg34
I896153
sg35
I10
sg36
I27
sg37
I259907
sg38
I231946
sg39
I1566469
sg40
I636246
sg41
g13
(g17
S'\\]\x8c\x8ca\xb5(@'
p1112
tp1113
Rp1114
ssS'DODSON KEITH'
p1115
(dp1116
g3
I176
sg4
g5
sg6
I28164
sg7
I00
sg8
g5
sg9
S'keith.dodson@enron.com'
p1117
sg11
g5
sg12
g13
(g17
S'\xe6P8\x80\x0eZ)@'
p1118
tp1119
Rp1120
sg23
g5
sg24
I114
sg25
g5
sg26
I14
sg27
I774
sg28
g5
sg29
g13
(g17
S'`\xa0{\x11\x00P&@'
p1121
tp1122
Rp1123
sg33
I70000
sg34
g5
sg35
I10
sg36
I3
sg37
g5
sg38
I221003
sg39
I319941
sg40
g5
sg41
g13
(g17
S'\x93\xaa\x8f\x0f\xa3\x9c(@'
p1124
tp1125
Rp1126
ssS'YEAGER F SCOTT'
p1127
(dp1128
g3
g5
sg4
g5
sg6
I53947
sg7
I01
sg8
g5
sg9
S'scott.yeager@enron.com'
p1129
sg11
g5
sg12
g13
(g17
S'\xe7\xba\xa1\xe8\xe1\x96)@'
p1130
tp1131
Rp1132
sg23
g5
sg24
g5
sg25
g5
sg26
g5
sg27
I147950
sg28
g5
sg29
g71
sg33
g5
sg34
I11884758
sg35
g5
sg36
g5
sg37
I3576206
sg38
I158403
sg39
I360300
sg40
I8308552
sg41
g13
(g17
S"\xf0\xe4\xa2\xa5\x1f\xf2'@"
p1133
tp1134
Rp1135
ssS'HIRKO JOSEPH'
p1136
(dp1137
g3
g5
sg4
I10259
sg6
I77978
sg7
I01
sg8
g5
sg9
S'joe.hirko@enron.com'
p1138
sg11
g5
sg12
g13
(g17
S'\x13D\xbc\x8f\xda\xd6&@'
p1139
tp1140
Rp1141
sg23
g5
sg24
g5
sg25
g5
sg26
g5
sg27
I2856
sg28
g5
sg29
g71
sg33
g5
sg34
I30766064
sg35
g5
sg36
g5
sg37
g5
sg38
g5
sg39
I91093
sg40
I30766064
sg41
g71
ssS'DIETRICH JANET R'
p1142
(dp1143
g3
I2572
sg4
g5
sg6
I3475
sg7
I00
sg8
g5
sg9
S'janet.dietrich@enron.com'
p1144
sg11
I556416
sg12
g13
(g17
S"'\xcd$\xb7\xa0Q,@"
p1145
tp1146
Rp1147
sg23
g5
sg24
I1902
sg25
g5
sg26
I63
sg27
I473
sg28
g5
sg29
g13
(g17
S'[\xee\xe7\xa9\xff\x9b*@'
p1148
tp1149
Rp1150
sg33
I600000
sg34
I1865087
sg35
I305
sg36
I14
sg37
I315068
sg38
I250100
sg39
I1410464
sg40
I1550019
sg41
g13
(g17
S'\xa5\x8b\xc7\xa4\xf6\xdb(@'
p1151
tp1152
Rp1153
ssS'DERRICK JR. JAMES V'
p1154
(dp1155
g3
I2181
sg4
g5
sg6
I51124
sg7
I00
sg8
I-1284000
sg9
S'james.derrick@enron.com'
p1156
sg11
I484000
sg12
g13
(g17
S'\x99\xec*|\\p*@'
p1157
tp1158
Rp1159
sg23
I-1787380
sg24
I1401
sg25
g5
sg26
I909
sg27
I7482
sg28
g5
sg29
g13
(g17
S'8\x95q\xbaJ/+@'
p1160
tp1161
Rp1162
sg33
I800000
sg34
I8831913
sg35
I64
sg36
I20
sg37
I1787380
sg38
I492375
sg39
I550981
sg40
I8831913
sg41
g13
(g17
S'\x81\xf5\xa8*\xc86*@'
p1163
tp1164
Rp1165
ssS'FREVERT MARK A'
p1166
(dp1167
g3
I3275
sg4
I6426990
sg6
I86987
sg7
I00
sg8
I-3367011
sg9
S'mark.frevert@enron.com'
p1168
sg11
I1617011
sg12
g13
(g17
S'\x94\xbb\xb7 \xd9\xa90@'
p1169
tp1170
Rp1171
sg23
g5
sg24
I2979
sg25
I2000000
sg26
I21
sg27
I7427621
sg28
g5
sg29
g13
(g17
S'?\xa3\x7f\xc9n\x04-@'
p1172
tp1173
Rp1174
sg33
I2000000
sg34
I14622185
sg35
I242
sg36
I6
sg37
I4188667
sg38
I1060932
sg39
I17252530
sg40
I10433518
sg41
g13
(g17
S'\x87\xa0J7\xd3\xbf+@'
p1175
tp1176
Rp1177
ssS'PAI LOU L'
p1178
(dp1179
g3
g5
sg4
g5
sg6
I32047
sg7
I00
sg8
g5
sg9
S'lou.pai@enron.com'
p1180
sg11
g5
sg12
g13
(g17
S'O]\xd6\xb0\xaa\xe8-@'
p1181
tp1182
Rp1183
sg23
g5
sg24
g5
sg25
g5
sg26
g5
sg27
I1829457
sg28
g5
sg29
g13
(g17
S'\xa0\xff\x8f\x99\x8a\xa1+@'
p1184
tp1185
Rp1186
sg33
I1000000
sg34
I23817930
sg35
g5
sg36
g5
sg37
I8453763
sg38
I261879
sg39
I3123383
sg40
I15364167
sg41
g13
(g17
S'`{\xb1\xcd\x86\xf3(@'
p1187
tp1188
Rp1189
ssS'BAY FRANKLIN R'
p1190
(dp1191
g3
g5
sg4
I260455
sg6
I129142
sg7
I00
sg8
I-201641
sg9
S'frank.bay@enron.com'
p1192
sg11
g5
sg12
g13
(g17
S'er\x03\xa9\xb7@+@'
p1193
tp1194
Rp1195
sg23
I-82782
sg24
g5
sg25
g5
sg26
g5
sg27
I69
sg28
g5
sg29
g13
(g17
S'\x99\xf1\x81\x8af\xcc)@'
p1196
tp1197
Rp1198
sg33
I400000
sg34
I63014
sg35
g5
sg36
g5
sg37
I145796
sg38
I239671
sg39
I827696
sg40
g5
sg41
g13
(g17
S"\xf2\xc9\xc2\xcd'\xc6(@"
p1199
tp1200
Rp1201
ssS'HAYSLETT RODERICK J'
p1202
(dp1203
g3
I2649
sg4
g5
sg6
g5
sg7
I00
sg8
g5
sg9
S'rod.hayslett@enron.com'
p1204
sg11
g5
sg12
g71
sg23
g5
sg24
I571
sg25
g5
sg26
I1061
sg27
g5
sg28
g5
sg29
g71
sg33
g5
sg34
I346663
sg35
I35
sg36
I38
sg37
I346663
sg38
g5
sg39
g5
sg40
g5
sg41
g71
ssS'FUGH JOHN L'
p1205
(dp1206
g3
g5
sg4
I50591
sg6
g5
sg7
I00
sg8
g5
sg9
g5
sg11
g5
sg12
g13
(g17
S'\xed\xa9h*\xbe\xa9%@'
p1207
tp1208
Rp1209
sg23
g5
sg24
g5
sg25
g5
sg26
g5
sg27
g5
sg28
g5
sg29
g71
sg33
g5
sg34
I176378
sg35
g5
sg36
g5
sg37
g5
sg38
g5
sg39
I50591
sg40
I176378
sg41
g71
ssS'FALLON JAMES B'
p1210
(dp1211
g3
I1755
sg4
g5
sg6
I95924
sg7
I00
sg8
g5
sg9
S'jim.fallon@enron.com'
p1212
sg11
I374347
sg12
g13
(g17
S'\xcc\xeb:\x8e\x1f<.@'
p1213
tp1214
Rp1215
sg23
g5
sg24
I1604
sg25
g5
sg26
I75
sg27
I401481
sg28
g5
sg29
g13
(g17
S'\xa8\r\x9e\xa8\xaev-@'
p1216
tp1217
Rp1218
sg33
I2500000
sg34
I2332399
sg35
I42
sg36
I37
sg37
I1392142
sg38
I304588
sg39
I3676340
sg40
I940257
sg41
g13
(g17
S'\xcc\x1f\xae\xd4\xe0@)@'
p1219
tp1220
Rp1221
ssS'KOENIG MARK E'
p1222
(dp1223
g3
I2374
sg4
g5
sg6
I127017
sg7
I01
sg8
g5
sg9
S'mark.koenig@enron.com'
p1224
sg11
I300000
sg12
g13
(g17
S'3\x97-_$\x8e,@'
p1225
tp1226
Rp1227
sg23
g5
sg24
I2271
sg25
g5
sg26
I61
sg27
I150458
sg28
g5
sg29
g13
(g17
S'\xa6\xf5h\x80\xec\xea*@'
p1228
tp1229
Rp1230
sg33
I700000
sg34
I1920055
sg35
I53
sg36
I15
sg37
I1248318
sg38
I309946
sg39
I1587421
sg40
I671737
sg41
g13
(g17
S'D\x19`x\xceI)@'
p1231
tp1232
Rp1233
ssS'SAVAGE FRANK'
p1234
(dp1235
g3
g5
sg4
g5
sg6
g5
sg7
I00
sg8
I-121284
sg9
g5
sg11
g5
sg12
g13
(g17
S'\x9a\n<{\x82u @'
p1236
tp1237
Rp1238
sg23
g5
sg24
g5
sg25
g5
sg26
g5
sg27
g5
sg28
I125034
sg29
g71
sg33
g5
sg34
g5
sg35
g5
sg36
g5
sg37
g5
sg38
g5
sg39
I3750
sg40
g5
sg41
g71
ssS'IZZO LAWRENCE L'
p1239
(dp1240
g3
I496
sg4
g5
sg6
I28093
sg7
I00
sg8
g5
sg9
S'larry.izzo@enron.com'
p1241
sg11
I312500
sg12
g13
(g17
S'\x1ax\x07\xb9.\xff,@'
p1242
tp1243
Rp1244
sg23
g5
sg24
I437
sg25
g5
sg26
I19
sg27
I1553729
sg28
g5
sg29
g71
sg33
g5
sg34
I5819980
sg35
I28
sg36
I5
sg37
I3654808
sg38
I85274
sg39
I1979596
sg40
I2165172
sg41
g13
(g17
S'./\x01R\x0e\xb5&@'
p1245
tp1246
Rp1247
ssS'TILNEY ELIZABETH A'
p1248
(dp1249
g3
I460
sg4
g5
sg6
g5
sg7
I00
sg8
I-575000
sg9
S'elizabeth.tilney@enron.com'
p1250
sg11
I275000
sg12
g13
(g17
S'\xa1\xb4\xfb|\x9f\xcb)@'
p1251
tp1252
Rp1253
sg23
g5
sg24
I379
sg25
g5
sg26
I19
sg27
I152055
sg28
g5
sg29
g13
(g17
S'\xbcJ\xf8y\x1b9)@'
p1254
tp1255
Rp1256
sg33
I300000
sg34
I1168042
sg35
I10
sg36
I11
sg37
I576792
sg38
I247338
sg39
I399393
sg40
I591250
sg41
g13
(g17
S'\xea\x92I\x16G\xd6(@'
p1257
tp1258
Rp1259
ssS'MARTIN AMANDA K'
p1260
(dp1261
g3
I1522
sg4
I85430
sg6
I8211
sg7
I00
sg8
g5
sg9
S'a..martin@enron.com'
p1262
sg11
I5145434
sg12
g13
(g17
S'8\xdf\xdb\x9d\x9f\xe3/@'
p1263
tp1264
Rp1265
sg23
g5
sg24
I477
sg25
g5
sg26
I230
sg27
I2818454
sg28
g5
sg29
g71
sg33
g5
sg34
I2070306
sg35
I8
sg36
I0
sg37
g5
sg38
I349487
sg39
I8407016
sg40
I2070306
sg41
g13
(g17
S'\x12~/\x0fH\x87)@'
p1266
tp1267
Rp1268
ssS'BUY RICHARD B'
p1269
(dp1270
g3
I3523
sg4
I649584
sg6
g5
sg7
I00
sg8
I-694862
sg9
S'rick.buy@enron.com'
p1271
sg11
I769862
sg12
g13
(g17
S'\\C\xe1+>X-@'
p1272
tp1273
Rp1274
sg23
g5
sg24
I2333
sg25
g5
sg26
I1053
sg27
I400572
sg28
g5
sg29
g13
(g17
S'\x1e\xebM\xc9\x98k+@'
p1275
tp1276
Rp1277
sg33
I900000
sg34
I3444470
sg35
I156
sg36
I71
sg37
I901657
sg38
I330546
sg39
I2355702
sg40
I2542813
sg41
g13
(g17
S'Wc_\xa8\xc0j)@'
p1278
tp1279
Rp1280
ssS'GRAMM WENDY L'
p1281
(dp1282
g3
g5
sg4
g5
sg6
g5
sg7
I00
sg8
g5
sg9
g5
sg11
g5
sg12
g13
(g17
S"x\xa7q\xcd\xef`'@"
p1283
tp1284
Rp1285
sg23
g5
sg24
g5
sg25
g5
sg26
g5
sg27
g5
sg28
I119292
sg29
g71
sg33
g5
sg34
g5
sg35
g5
sg36
g5
sg37
g5
sg38
g5
sg39
I119292
sg40
g5
sg41
g71
ssS'CAUSEY RICHARD A'
p1286
(dp1287
g3
I1892
sg4
g5
sg6
I30674
sg7
I01
sg8
I-235000
sg9
S'richard.causey@enron.com'
p1288
sg11
I350000
sg12
g13
(g17
S'\x9b\xce\xc9\x84\xae\xe1,@'
p1289
tp1290
Rp1291
sg23
g5
sg24
I1585
sg25
g5
sg26
I49
sg27
I307895
sg28
g5
sg29
g13
(g17
S'\xa0\xff\x8f\x99\x8a\xa1+@'
p1292
tp1293
Rp1294
sg33
I1000000
sg34
I2502063
sg35
I58
sg36
I12
sg37
I2502063
sg38
I415189
sg39
I1868758
sg40
g5
sg41
g13
(g17
S'\xa9\x18g\x80{\xdf)@'
p1295
tp1296
Rp1297
ssS'TAYLOR MITCHELL S'
p1298
(dp1299
g3
I533
sg4
I227449
sg6
g5
sg7
I00
sg8
g5
sg9
S'mitchell.taylor@enron.com'
p1300
sg11
g5
sg12
g13
(g17
S'jo\xb6\xea\xe9\xce+@'
p1301
tp1302
Rp1303
sg23
g5
sg24
I300
sg25
g5
sg26
I29
sg27
g5
sg28
g5
sg29
g13
(g17
S'[\xee\xe7\xa9\xff\x9b*@'
p1304
tp1305
Rp1306
sg33
I600000
sg34
I3745048
sg35
I0
sg36
I0
sg37
I563798
sg38
I265214
sg39
I1092663
sg40
I3181250
sg41
g13
(g17
S'\x99=\xa8s\x01\xfa(@'
p1307
tp1308
Rp1309
ssS'DONAHUE JR JEFFREY M'
p1310
(dp1311
g3
I865
sg4
g5
sg6
I96268
sg7
I00
sg8
I-300000
sg9
S'jeff.donahue@enron.com'
p1312
sg11
g5
sg12
g13
(g17
S'\x12\xd1L+\x9e]+@'
p1313
tp1314
Rp1315
sg23
g5
sg24
I772
sg25
g5
sg26
I22
sg27
I891
sg28
g5
sg29
g13
(g17
S'8\x95q\xbaJ/+@'
p1316
tp1317
Rp1318
sg33
I800000
sg34
I1080988
sg35
I188
sg36
I11
sg37
I315068
sg38
I278601
sg39
I875760
sg40
I765920
sg41
g13
(g17
S'#\xf2\xcc\xe87\x13)@'
p1319
tp1320
Rp1321
ssS'GLISAN JR BEN F'
p1322
(dp1323
g3
I873
sg4
g5
sg6
I125978
sg7
I01
sg8
g5
sg9
S'ben.glisan@enron.com'
p1324
sg11
I71023
sg12
g13
(g17
S'u\x82\xd5\x88\xd6\x1c,@'
p1325
tp1326
Rp1327
sg23
g5
sg24
I874
sg25
g5
sg26
I16
sg27
I200308
sg28
g5
sg29
g13
(g17
S'[\xee\xe7\xa9\xff\x9b*@'
p1328
tp1329
Rp1330
sg33
I600000
sg34
I778546
sg35
I52
sg36
I6
sg37
I393818
sg38
I274975
sg39
I1272284
sg40
I384728
sg41
g13
(g17
S'w\x8c\x18\xce\x82\x0c)@'
p1331
tp1332
Rp1333
ss.