(lp0
S'poi'
p1
aS'to_messages'
p2
aS'deferral_payments'
p3
aS'expenses'
p4
aS'deferred_income'
p5
aS'long_term_incentive'
p6
aS'restricted_stock_deferred'
p7
aS'shared_receipt_with_poi'
p8
aS'loan_advances'
p9
aS'from_messages'
p10
aS'other'
p11
aS'director_fees'
p12
aS'from_poi_to_this_person'
p13
aS'from_this_person_to_poi'
p14
aS'restricted_stock'
p15
aS'exercised_stock_options'
p16
aS'total_stock_value'
p17
aS'log_bonus'
p18
aS'log_salary'
p19
aS'log_total_payments'
p20
a.